(dp1
V\u8000
I1942
sV\u8302
I539
sV\u9000
I1506
sV\u6d89
I1157
sV\u8c08
I1393
sV\u4e2a
I3326
sV\u4f0a
I1964
sV\u968f
I1345
sV\u6302
I3384
sV\u6297
I174
sV\u8116
I2694
sV\u6599
I383
sV\u5fae
I1559
sV\u8d1e
I2287
sV\u9020
I2195
sV\u77a5
I825
sV\u7624
I422
sV\u822c
I2557
sV\u4f5c
I2488
sV\u902e
I2959
sV\u6cb3
I3479
sV\u6b32
I2116
sV\u4fb5
I954
sV\u6e34
I191
sV\u7136
I1021
sV\u75b9
I2291
sV\u5438
I1649
sV\u773a
I1456
sV\u5bbd
I226
sV\u7a3c
I3674
sV\u7ebf
I1714
sV\u507f
I2776
sV\u6342
I1627
sV\u503e
I967
sV\u73cd
I2281
sV\u724c
I750
sV\u76cf
I2234
sV\u620c
I1815
sV\u79d1
I187
sV\u7b52
I1481
sV\u568f
I1440
sV\u82d7
I595
sV\u7eb8
I2336
sV\u6e0a
I2127
sV\u62e5
I2046
sV\u8bdd
I3538
sV\u4edf
I910
sV\u8d5e
I2181
sV\u51e1
I3164
sV\u94e3
I1670
sV\u5362
I442
sV\u77e5
I2317
sV\u9664
I2864
sV\u5de9
I3348
sV\u60eb
I2609
sV\u7f6a
I2480
sV\u63ed
I11
sV\u626c
I1916
sV\u8870
I1280
sV\u6cf3
I2055
sV\u9176
I548
sV\u95f9
I672
sV\u5478
I774
sV\u9a7c
I1516
sV\u7eff
I474
sV\u6e14
I2095
sV\u6101
I2849
sV\u6382
I3023
sV\u6986
I2085
sV\u6c88
I1169
sV\u8f8a
I3419
sV\u6e43
I752
sV\u9890
I1966
sV\u89c2
I3393
sV\u7f15
I468
sV\u5e94
I2031
sV\u679a
I546
sV\u5121
I303
sV\u6ee4
I473
sV\u5047
I3673
sV\u5d29
I2616
sV\u5faa
I1851
sV\u62ac
I1376
sV\u662f
I1220
sV\u68b0
I1766
sV\u8bb2
I3728
sV\u5237
I1277
sV\u51b6
I1948
sV\u9539
I934
sV\u54b8
I1695
sV\u6d1e
I3072
sV\u9e3f
I3500
sV\u80c0
I2258
sV\u6a47
I933
sV\u89c6
I1232
sV\u4fca
I150
sV\u5951
I891
sV\u78d0
I757
sV\u5bd2
I3442
sV\u5f55
I458
sV\u9ed4
I913
sV\u5178
I3027
sV\u6559
I5
sV\u4e5f
I1949
sV\u827e
I2502
sV\u56e4
I3110
sV\u79e6
I956
sV\u5ce8
I3127
sV\u606b
I3070
sV\u62ec
I251
sV\u666f
I71
sV\u8bf2
I3591
sV\u6ef4
I3005
sV\u51f6
I1800
sV\u94f8
I2400
sV\u987b
I1819
sV\u57fa
I3611
sV\u5b7d
I703
sV\u9e7f
I455
sV\u5dfe
I38
sV\u6c89
I2804
sV\u918b
I2920
sV\u4e0a
I1135
sV\u540e
I3511
sV\u9891
I827
sV\u9910
I2722
sV\u6682
I2180
sV\u5e95
I3014
sV\u7f14
I3021
sV\u6016
I2709
sV\u8499
I565
sV\u6518
I1027
sV\u952e
I3708
sV\u8f9f
I2641
sV\u5384
I3134
sV\u7684
I2995
sV\u76fe
I3112
sV\u5830
I1900
sV\u5ca9
I3749
sV\u82ad
I2527
sV\u5cb3
I2151
sV\u67af
I210
sV\u60dc
I1658
sV\u88b1
I3244
sV\u6930
I1943
sV\u8db3
I2468
sV\u4f34
I2563
sV\u9988
I244
sV\u7538
I3032
sV\u79bb
I318
sV\u7b3c
I429
sV\u4e34
I393
sV\u80c1
I1763
sV\u6846
I231
sV\u6cc9
I1004
sV\u51cb
I3041
sV\u7ed5
I1032
sV\u69db
I3703
sV\u665a
I1540
sV\u8fdf
I2828
sV\u6c5e
I3349
sV\u90e1
I153
sV\u55e3
I1310
sV\u7262
I289
sV\u5764
I247
sV\u7ea7
I3638
sV\u62ed
I1216
sV\u67ef
I183
sV\u68f1
I309
sV\u8df3
I1457
sV\u8f74
I2372
sV\u53f7
I3465
sV\u5076
I740
sV\u5578
I1750
sV\u79fb
I1969
sV\u8d3e
I3670
sV\u5fff
I3208
sV\u8001
I290
sV\u8180
I2572
sV\u8282
I19
sV\u8717
I1604
sV\u6886
I2570
sV\u6d88
I1742
sV\u538c
I1902
sV\u948e
I905
sV\u5811
I921
sV\u5a92
I553
sV\u5e15
I745
sV\u7f94
I3305
sV\u8096
I1749
sV\u4f1f
I1573
sV\u5021
I2782
sV\u51a0
I3392
sV\u9523
I494
sV\u6e1d
I2094
sV\u7eaa
I3661
sV\u672f
I1266
sV\u64ae
I2938
sV\u5439
I2886
sV\u7a3d
I3614
sV\u7cbe
I66
sV\u81c0
I1509
sV\u5409
I3626
sV\u62c2
I3233
sV\u67c4
I2674
sV\u6b47
I1755
sV\u6c49
I3454
sV\u53cd
I3166
sV\u514b
I192
sV\u4eca
I42
sV\u524d
I916
sV\u53cc
I1286
sV\u574f
I3543
sV\u54ce
I2495
sV\u5851
I1335
sV\u59d0
I28
sV\u5e55
I645
sV\u7fd4
I1723
sV\u80d6
I766
sV\u6cde
I714
sV\u59d1
I3369
sV\u9563
I381
sV\u5de8
I117
sV\u7eea
I1831
sV\u626d
I716
sV\u676f
I2597
sV\u5377
I132
sV\u95f8
I2215
sV\u56fa
I3378
sV\u652b
I135
sV\u9f7f
I2832
sV\u8200
I1939
sV\u8102
I2319
sV\u8404
I1418
sV\u8f89
I3574
sV\u4e08
I2254
sV\u518d
I2176
sV\u548f
I2054
sV\u5e93
I215
sV\u5802
I1404
sV\u5c14
I3143
sV\u6316
I1521
sV\u851a
I1578
sV\u6c9f
I3355
sV\u4f1e
I1089
sV\u5220
I1118
sV\u56a3
I1740
sV\u75a5
I35
sV\u98a7
I1001
sV\u7b26
I3237
sV\u62ab
I803
sV\u5206
I3200
sV\u8eb2
I3119
sV\u6db5
I3441
sV\u6c34
I1289
sV\u7638
I1013
sV\u79bd
I961
sV\u8bef
I1640
sV\u5cbf
I238
sV\u6240
I1364
sV\u65c5
I465
sV\u6444
I1154
sV\u5e7f
I3401
sV\u4e48
I544
sV\u52cb
I1849
sV\u8d4a
I1149
sV\u91cd
I2363
sV\u74e3
I2564
sV\u574e
I167
sV\u7ed3
I26
sV\u5149
I3400
sV\u6f5e
I456
sV\u5162
I59
sV\u5b66
I1845
sV\u9e3d
I3315
sV\u82eb
I1115
sV\u81ed
I2855
sV\u606c
I1450
sV\u8bf1
I2078
sV\u9012
I3020
sV\u8df5
I3705
sV\u70f7
I1536
sV\u57f9
I776
sV\u7678
I3413
sV\u79fd
I3586
sV\u787c
I792
sV\u8301
I2435
sV\u6280
I3644
sV\u5f6a
I2659
sV\u6807
I2658
sV\u6b86
I2954
sV\u4e88
I2097
sV\u8d8a
I2148
sV\u540f
I327
sV\u778e
I1676
sV\u7b11
I1751
sV\u9992
I518
sV\u5c94
I2754
sV\u8017
I3464
sV\u6396
I1951
sV\u889c
I1527
sV\u6c1f
I3236
sV\u8f9e
I2904
sV\u5321
I228
sV\u52a0
I3667
sV\u7525
I1178
sV\u7827
I2285
sV\u5ba6
I3556
sV\u7f29
I1360
sV\u60ac
I1836
sV\u8d35
I3417
sV\u9739
I801
sV\u7a3b
I2989
sV\u8eba
I1410
sV\u5c3f
I700
sV\u6643
I3568
sV\u81c2
I2643
sV\u6545
I3376
sV\u84c4
I1822
sV\u8bc6
I1203
sV\u5176
I874
sV\u914d
I780
sV\u8fa3
I260
sV\u57ce
I2810
sV\u7b51
I2401
sV\u75f9
I2636
sV\u79d2
I599
sV\u63d6
I1961
sV\u6c5f
I3723
sV\u8fde
I349
sV\u5361
I157
sV\u72e0
I3489
sV\u7663
I1840
sV\u5565
I1110
sV\u74e4
I1025
sV\u7f69
I2267
sV\u626b
I1096
sV\u4e73
I1067
sV\u8d75
I2265
sV\u4eff
I3180
sV\u5077
I1484
sV\u53f6
I1953
sV\u7779
I3087
sV\u76f8
I1715
sV\u9a7b
I2405
sV\u95fa
I3409
sV\u597d
I3463
sV\u5c7f
I2101
sV\u7b80
I3698
sV\u6002
I1318
sV\u6485
I134
sV\u9080
I1928
sV\u4e89
I2302
sV\u88ad
I1665
sV\u738b
I1548
sV\u8c0a
I2005
sV\u6292
I1248
sV\u5403
I2823
sV\u758f
I1253
sV\u960e
I1891
sV\u9a91
I885
sV\u7812
I800
sV\u7c95
I847
sV\u5d14
I2927
sV\u6216
I3604
sV\u8718
I2316
sV\u6e24
I2696
sV\u6d9f
I353
sV\u8e1e
I120
sV\u52a1
I1638
sV\u82b1
I3530
sV\u57a3
I2130
sV\u9022
I3220
sV\u94a5
I2150
sV\u9524
I2889
sV\u7f28
I2032
sV\u83ab
I628
sV\u8986
I3258
sV\u65af
I1300
sV\u6fb3
I2526
sV\u8d34
I1458
sV\u51b7
I311
sV\u5236
I2345
sV\u9738
I2542
sV\u793c
I324
sV\u8042
I702
sV\u64c5
I1123
sV\u53cb
I2074
sV\u914c
I2436
sV\u564e
I1944
sV\u7b50
I229
sV\u7852
I1645
sV\u7cd5
I3306
sV\u66d9
I1260
sV\u6bdb
I535
sV\u73bb
I2680
sV\u8ddf
I3330
sV\u4e5e
I888
sV\u72e1
I3748
sV\u5360
I2241
sV\u77e3
I1982
sV\u54e5
I3311
sV\u5564
I807
sV\u79e7
I1914
sV\u7ee9
I3624
sV\u60ed
I2726
sV\u8c13
I1586
sV\u666e
I859
sV\u6cf5
I2619
sV\u6d74
I2120
sV\u96f9
I2586
sV\u5f15
I2024
sV\u5bfb
I1854
sV\u997c
I3750
sV\u6380
I1689
sV\u6405
I3743
sV\u8584
I2585
sV\u4e09
I1087
sV\u8f88
I2602
sV\u500d
I2606
sV\u518c
I2742
sV\u568e
I3459
sV\u7236
I3264
sV\u5f13
I3347
sV\u5892
I1130
sV\u6296
I3074
sV\u699c
I2571
sV\u8d1f
I3266
sV\u5723
I1186
sV\u90a2
I1792
sV\u75a4
I2534
sV\u5927
I2948
sV\u832b
I527
sV\u7caa
I3210
sV\u652f
I2314
sV\u66ae
I644
sV\u6a31
I2028
sV\u8bb0
I3655
sV\u6f33
I2249
sV\u8db4
I743
sV\u72b6
I2421
sV\u6241
I2650
sV\u6743
I1002
sV\u644a
I1384
sV\u80a0
I2777
sV\u4e49
I2000
sV\u8fc8
I515
sV\u94f6
I2019
sV\u904d
I2657
sV\u91cc
I322
sV\u754f
I1580
sV\u76ce
I2517
sV\u5bd0
I558
sV\u5f53
I2976
sV\u53a2
I1716
sV\u5c55
I2238
sV\u62d6
I1510
sV\u6ede
I2352
sV\u7261
I639
sV\u73e0
I2380
sV\u7763
I3081
sV\u83b7
I3603
sV\u8350
I3702
sV\u836b
I2012
sV\u5cea
I2113
sV\u606d
I3341
sV\u86ee
I519
sV\u4fdd
I2587
sV\u4f73
I3665
sV\u9f9a
I3342
sV\u5177
I118
sV\u94fa
I850
sV\u987d
I1534
sV\u6400
I2760
sV\u8083
I1339
sV\u8702
I3214
sV\u8e87
I2860
sV\u9600
I3153
sV\u6808
I2240
sV\u548b
I2219
sV\u978d
I2506
sV\u82ac
I3196
sV\u5893
I643
sV\u7b95
I3616
sV\u6697
I2511
sV\u8018
I2156
sV\u6c9b
I782
sV\u631a
I2338
sV\u5a9a
I560
sV\u4e1c
I3064
sV\u80a1
I3375
sV\u75a1
I1918
sV\u5420
I3191
sV\u90a3
I657
sV\u5224
I760
sV\u5ea7
I2490
sV\u82af
I1775
sV\u6c30
I972
sV\u68b3
I1246
sV\u4ed3
I2731
sV\u56b7
I1028
sV\u9038
I1992
sV\u533a
I988
sV\u7fbd
I2105
sV\u768b
I3302
sV\u7abf
I430
sV\u793e
I1158
sV\u65c1
I764
sV\u80c3
I1581
sV\u6742
I2170
sV\u7237
I1946
sV\u4ec7
I2851
sV\u6d46
I3722
sV\u89c9
I140
sV\u6848
I2514
sV\u964c
I634
sV\u714e
I3685
sV\u5f52
I3407
sV\u6556
I2519
sV\u8058
I830
sV\u6cdb
I3172
sV\u830e
I60
sV\u8fdd
I1562
sV\u695e
I310
sV\u55e1
I1600
sV\u9762
I594
sV\u53e5
I123
sV\u7ee7
I3660
sV\u6e10
I3715
sV\u79e9
I2347
sV\u5b6a
I477
sV\u62ef
I2305
sV\u816e
I1083
sV\u6df1
I1165
sV\u6c70
I1382
sV\u88f3
I1137
sV\u8bf5
I1323
sV\u96f7
I298
sV\u9576
I1717
sV\u51f9
I2518
sV\u7078
I91
sV\u5cfb
I149
sV\u5ffd
I3514
sV\u5e7c
I2080
sV\u7aff
I3285
sV\u8003
I177
sV\u8305
I533
sV\u6284
I2784
sV\u4e07
I1545
sV\u6b8a
I1247
sV\u970d
I3606
sV\u6bb5
I3098
sV\u5f92
I1492
sV\u8098
I2373
sV\u6c1b
I3199
sV\u6e9c
I415
sV\u6a1f
I2246
sV\u9521
I1650
sV\u94a0
I656
sV\u711a
I3203
sV\u5e27
I2308
sV\u5929
I1445
sV\u58a8
I629
sV\u5baa
I1711
sV\u672d
I2212
sV\u97f3
I2015
sV\u6d31
I3145
sV\u789f
I3049
sV\u70b8
I2221
sV\u804b
I427
sV\u7a3f
I3309
sV\u6574
I2304
sV\u6043
I1230
sV\u6345
I1480
sV\u62c4
I2391
sV\u6dc6
I1744
sV\u7a76
I86
sV\u574d
I1383
sV\u8f69
I1833
sV\u71ce
I375
sV\u811a
I3747
sV\u5b55
I2167
sV\u6c5b
I1858
sV\u5561
I3186
sV\u9063
I918
sV\u77e2
I1205
sV\u52e4
I958
sV\u5de6
I2484
sV\u78e8
I623
sV\u846b
I3517
sV\u676d
I3456
sV\u826f
I364
sV\u6cf0
I1378
sV\u8bbf
I3181
sV\u9677
I1712
sV\u5179
I2441
sV\u90f8
I2965
sV\u7c7b
I307
sV\u867e
I1677
sV\u7efc
I2460
sV\u5a7f
I1830
sV\u4ed4
I2449
sV\u516c
I3345
sV\u6500
I754
sV\u6602
I2516
sV\u8304
I949
sV\u8c06
I2428
sV\u65ad
I3099
sV\u6a0a
I3160
sV\u5993
I3659
sV\u60af
I609
sV\u6797
I390
sV\u6d9b
I1415
sV\u621a
I867
sV\u94a1
I2605
sV\u58a9
I3105
sV\u96cf
I2862
sV\u672c
I2614
sV\u8d30
I3147
sV\u4e32
I2879
sV\u7436
I747
sV\u90b9
I2463
sV\u523a
I2909
sV\u7ebd
I718
sV\u5bbf
I1337
sV\u783e
I332
sV\u81c3
I2048
sV\u4e4b
I2321
sV\u8fc7
I3427
sV\u8c46
I3077
sV\u68c9
I586
sV\u96cd
I2051
sV\u90e7
I2158
sV\u59d3
I1798
sV\u5b54
I204
sV\u7238
I2544
sV\u6f5c
I917
sV\u94e1
I2214
sV\u9662
I2145
sV\u5364
I447
sV\u5fe7
I2064
sV\u7968
I823
sV\u5a6a
I266
sV\u7c4d
I3630
sV\u8d70
I2464
sV\u8e72
I3107
sV\u7476
I1931
sV\u70f9
I787
sV\u9178
I1340
sV\u727a
I1651
sV\u7efd
I2245
sV\u5f7c
I2627
sV\u5bff
I1238
sV\u987e
I3377
sV\u6401
I3313
sV\u8682
I506
sV\u8205
I98
sV\u950b
I3216
sV\u8a8a
I1429
sV\u708e
I1892
sV\u5c11
I1145
sV\u7b94
I2690
sV\u6717
I285
sV\u8019
I2540
sV\u8198
I2660
sV\u6d1b
I499
sV\u629a
I3247
sV\u4e1d
I1306
sV\u6f9c
I272
sV\u5f27
I3523
sV\u5306
I2915
sV\u59a8
I3179
sV\u852b
I690
sV\u6b66
I1625
sV\u662d
I2262
sV\u632f
I2294
sV\u80ae
I2515
sV\u8c31
I861
sV\u4eb2
I955
sV\u6bb4
I737
sV\u7737
I131
sV\u523d
I3418
sV\u5e3d
I541
sV\u78be
I693
sV\u573a
I2772
sV\u89c8
I275
sV\u964d
I3731
sV\u534f
I1758
sV\u90ce
I284
sV\u5c51
I1773
sV\u7ed2
I1056
sV\u8757
I3562
sV\u84d6
I2629
sV\u8d5b
I1086
sV\u4e5d
I92
sV\u8fdc
I2141
sV\u9163
I3436
sV\u56e2
I1500
sV\u5265
I2584
sV\u53e4
I3371
sV\u5ce6
I475
sV\u59e8
I1975
sV\u67ec
I3693
sV\u836f
I1940
sV\u60ee
I2971
sV\u4ef2
I2364
sV\u8bf4
I1296
sV\u5777
I181
sV\u74f6
I837
sV\u51f8
I1488
sV\u52fa
I1143
sV\u5e7d
I2061
sV\u7ffc
I2008
sV\u8854
I1697
sV\u6781
I3627
sV\u6f06
I871
sV\u6b89
I1857
sV\u968b
I1344
sV\u540c
I1475
sV\u730e
I388
sV\u5e10
I2255
sV\u7814
I1886
sV\u6258
I1511
sV\u6218
I2242
sV\u4e9b
I1754
sV\u611a
I2087
sV\u6d9d
I295
sV\u8c1c
I577
sV\u52a3
I387
sV\u915a
I3197
sV\u5f26
I1701
sV\u7ba9
I495
sV\u592a
I1380
sV\u7c3f
I2707
sV\u642c
I2555
sV\u80af
I196
sV\u8fb1
I1066
sV\u4e30
I3211
sV\u6d32
I2369
sV\u7736
I233
sV\u5238
I1009
sV\u9ebb
I503
sV\u5c3c
I683
sV\u9f13
I3370
sV\u8e0a
I2052
sV\u4f46
I2970
sV\u8bc9
I1338
sV\u50cf
I1732
sV\u534e
I3532
sV\u9ad3
I1347
sV\u5854
I1369
sV\u6756
I2253
sV\u8258
I1325
sV\u8ddd
I119
sV\u7891
I2598
sV\u71e5
I2198
sV\u5f66
I1906
sV\u8f66
I2792
sV\u65ed
I1825
sV\u846c
I2184
sV\u80ef
I221
sV\u636e
I116
sV\u4ff1
I122
sV\u4e70
I512
sV\u74f7
I2906
sV\u9776
I2538
sV\u53f9
I1399
sV\u9c7c
I2092
sV\u7b7e
I909
sV\u8680
I1201
sV\u6084
I936
sV\u8f86
I366
sV\u95ed
I2637
sV\u548c
I3473
sV\u900f
I1487
sV\u5e90
I444
sV\u5915
I1657
sV\u60ef
I3397
sV\u6298
I2272
sV\u4e1b
I2917
sV\u8d1d
I2604
sV\u5ff1
I2803
sV\u5c27
I1933
sV\u9e70
I2030
sV\u9aa8
I3373
sV\u64ac
I943
sV\u602f
I951
sV\u6f31
I1275
sV\u6db2
I1957
sV\u9f9f
I3408
sV\u5339
I811
sV\u5bbe
I2670
sV\u86c0
I2398
sV\u6c47
I3589
sV\u6b49
I924
sV\u964b
I440
sV\u954d
I706
sV\u504f
I817
sV\u7f51
I1551
sV\u5f8a
I3540
sV\u8457
I2395
sV\u62d8
I103
sV\u6e5b
I2244
sV\u7ece
I2010
sV\u8bde
I2973
sV\u7761
I1290
sV\u56e0
I2013
sV\u75e2
I338
sV\u5165
I1069
sV\u70e4
I179
sV\u5b69
I3430
sV\u866b
I2841
sV\u84ec
I790
sV\u606f
I1653
sV\u4ef0
I1923
sV\u88f4
I777
sV\u97f6
I1144
sV\u72f8
I317
sV\u5e7b
I3557
sV\u51fa
I2857
sV\u987f
I3109
sV\u8681
I1978
sV\u8700
I1262
sV\u6402
I437
sV\u56de
I3578
sV\u8a89
I2119
sV\u978b
I1757
sV\u950c
I1776
sV\u718f
I1850
sV\u832c
I2748
sV\u6597
I3075
sV\u5fd8
I1555
sV\u8f9b
I1778
sV\u8084
I1993
sV\u7720
I587
sV\u7422
I2434
sV\u9e26
I1865
sV\u7b28
I2615
sV\u67ab
I3213
sV\u582a
I165
sV\u64ad
I2682
sV\u852c
I1244
sV\u622e
I460
sV\u4f30
I3366
sV\u8bb3
I3590
sV\u55b7
I783
sV\u5636
I1302
sV\u72b9
I2069
sV\u6167
I3581
sV\u503a
I2227
sV\u7f13
I3548
sV\u6740
I1105
sV\u60c5
I973
sV\u63b7
I2339
sV\u57cb
I511
sV\u54cd
I1727
sV\u754c
I32
sV\u91cf
I367
sV\u7ed1
I2573
sV\u9f50
I881
sV\u7bd3
I438
sV\u78d5
I185
sV\u5954
I2612
sV\u65d7
I882
sV\u62d9
I2431
sV\u8fdb
I49
sV\u805a
I114
sV\u59bb
I868
sV\u4f88
I2833
sV\u9760
I180
sV\u53e3
I207
sV\u5462
I674
sV\u7164
I550
sV\u5de7
I941
sV\u5ae9
I677
sV\u82e6
I213
sV\u656c
I75
sV\u626e
I2561
sV\u4f70
I2549
sV\u6c72
I3635
sV\u68f5
I184
sV\u95f7
I562
sV\u9676
I1422
sV\u5378
I1767
sV\u5ffb
I1780
sV\u5c3e
I1575
sV\u59ff
I2444
sV\u9a7e
I3677
sV\u90c1
I2109
sV\u8303
I3168
sV\u6482
I380
sV\u8005
I2276
sV\u4e86
I379
sV\u770b
I169
sV\u540d
I615
sV\u5f90
I1820
sV\u7c92
I340
sV\u5815
I3125
sV\u8517
I2278
sV\u6696
I727
sV\u6398
I137
sV\u809a
I3091
sV\u97a0
I102
sV\u5323
I1678
sV\u94a2
I3294
sV\u7bc7
I816
sV\u7d27
I45
sV\u9ea6
I513
sV\u5a29
I592
sV\u672b
I627
sV\u642d
I2943
sV\u812f
I3252
sV\u9c9c
I1693
sV\u7877
I3695
sV\u8fb0
I2800
sV\u69b4
I417
sV\u7537
I666
sV\u96b6
I342
sV\u5239
I1106
sV\u5475
I3467
sV\u9f3b
I2623
sV\u86f0
I2274
sV\u5c3d
I56
sV\u95f4
I3684
sV\u64c2
I305
sV\u6d47
I3739
sV\u4ec6
I851
sV\u8bc8
I2222
sV\u6beb
I3461
sV\u7855
I1297
sV\u59d4
I1572
sV\u4f5b
I3226
sV\u80da
I775
sV\u6c5d
I1068
sV\u895f
I44
sV\u9661
I3076
sV\u57e0
I2703
sV\u74e2
I822
sV\u9065
I1934
sV\u51e4
I3225
sV\u7ee6
I1417
sV\u5be8
I2228
sV\u65ec
I1852
sV\u4e71
I480
sV\u8ff0
I1267
sV\u96f6
I403
sV\u7279
I1425
sV\u53f8
I1305
sV\u5f7b
I2796
sV\u96fe
I1634
sV\u7c7d
I2450
sV\u997f
I3138
sV\u8981
I1941
sV\u6c83
I1611
sV\u8f85
I3248
sV\u8106
I2929
sV\u952d
I3060
sV\u7b8d
I3365
sV\u70b9
I3026
sV\u5e8f
I1826
sV\u5d0e
I879
sV\u9010
I2387
sV\u9493
I3045
sV\u9614
I254
sV\u809b
I3296
sV\u4f1a
I3587
sV\u821c
I1295
sV\u865a
I1817
sV\u7126
I3735
sV\u5428
I3106
sV\u88ab
I2611
sV\u8bad
I1859
sV\u8eaf
I991
sV\u8d2e
I2399
sV\u9189
I2478
sV\u5c38
I1193
sV\u90bb
I394
sV\u5f3a
I931
sV\u76bf
I607
sV\u553e
I1520
sV\u89c1
I3707
sV\u8840
I1848
sV\u8fc5
I1862
sV\u8e44
I1436
sV\u62c7
I638
sV\u8146
I1452
sV\u85c9
I30
sV\u6448
I2671
sV\u78cb
I2937
sV\u67b6
I3676
sV\u7ecf
I68
sV\u91d1
I41
sV\u904f
I3136
sV\u5352
I2469
sV\u60b2
I2599
sV\u655e
I2779
sV\u9e64
I3483
sV\u5410
I1497
sV\u5468
I2367
sV\u576a
I832
sV\u8bed
I2104
sV\u6d6e
I3241
sV\u6070
I901
sV\u6674
I971
sV\u9976
I1030
sV\u50fb
I813
sV\u8c03
I3046
sV\u9a8c
I1910
sV\u9999
I1718
sV\u5413
I1688
sV\u9694
I3324
sV\u631d
I1603
sV\u829c
I1620
sV\u661f
I1784
sV\u98a0
I3022
sV\u5ba2
I194
sV\u5f25
I578
sV\u7ea4
I1694
sV\u7529
I1281
sV\u94a8
I1614
sV\u77aa
I3000
sV\u6aac
I566
sV\u6e2f
I3299
sV\u8131
I1512
sV\u83b2
I348
sV\u6735
I3120
sV\u66b4
I2593
sV\u9cb8
I63
sV\u903b
I493
sV\u963f
I2492
sV\u75be
I3634
sV\u68c0
I3692
sV\u6247
I1128
sV\u81c6
I1991
sV\u8549
I3732
sV\u7076
I2197
sV\u5acc
I1702
sV\u9e4f
I796
sV\u5151
I3102
sV\u76d4
I237
sV\u7578
I3613
sV\u6d59
I2280
sV\u59fb
I2017
sV\u5267
I126
sV\u54e8
I1146
sV\u886b
I1120
sV\u6dee
I3542
sV\u80f0
I1971
sV\u83f2
I3184
sV\u66f4
I3332
sV\u7a77
I978
sV\u72fc
I282
sV\u6881
I362
sV\u6001
I1381
sV\u532a
I3189
sV\u6e85
I3716
sV\u6387
I3114
sV\u998b
I2763
sV\u7a8d
I947
sV\u9091
I1987
sV\u5212
I3536
sV\u6816
I866
sV\u6c99
I1107
sV\u819b
I1406
sV\u592e
I1912
sV\u829d
I2312
sV\u879f
I612
sV\u7784
I597
sV\u5026
I130
sV\u94a9
I3353
sV\u9528
I1690
sV\u762a
I2665
sV\u4faf
I3506
sV\u6c2e
I2969
sV\u6734
I857
sV\u7cb9
I2931
sV\u51bb
I3071
sV\u543e
I1622
sV\u88c1
I2712
sV\u5761
I840
sV\u8dc3
I2149
sV\u4ec5
I47
sV\u7eb7
I3201
sV\u83c7
I3363
sV\u84c9
I1050
sV\u620d
I1270
sV\u79cb
I979
sV\u5c4e
I1207
sV\u90d1
I2310
sV\u79b9
I2102
sV\u55d3
I1092
sV\u96d5
I3040
sV\u8bd7
I1192
sV\u9165
I1329
sV\u548e
I99
sV\u5960
I3035
sV\u7ee5
I1346
sV\u5f64
I1477
sV\u54e9
I345
sV\u966a
I779
sV\u8b6c
I815
sV\u4fef
I3249
sV\u6170
I1588
sV\u8272
I1099
sV\u8774
I3519
sV\u7bf7
I793
sV\u9876
I3058
sV\u51fb
I3609
sV\u77ff
I232
sV\u5598
I2878
sV\u6e05
I969
sV\u4f84
I2329
sV\u6307
I2331
sV\u8086
I1308
sV\u868a
I1592
sV\u7a0d
I1140
sV\u5b8c
I1537
sV\u5f0f
I1210
sV\u563f
I3485
sV\u7011
I863
sV\u8896
I1812
sV\u8bc5
I2472
sV\u4e9a
I1877
sV\u671f
I864
sV\u649e
I2419
sV\u5821
I2588
sV\u9e25
I736
sV\u7fa4
I1020
sV\u90a6
I2568
sV\u5429
I3198
sV\u8bdb
I2386
sV\u4f2f
I2691
sV\u6cae
I113
sV\u91c9
I2077
sV\u5c39
I2023
sV\u7eba
I3182
sV\u723d
I1287
sV\u94be
I3672
sV\u8d43
I2182
sV\u4e45
I90
sV\u8fc4
I895
sV\u80c6
I2967
sV\u594b
I3206
sV\u86ca
I3372
sV\u5bcc
I3267
sV\u52d2
I296
sV\u9655
I1122
sV\u57d4
I856
sV\u6dd8
I1421
sV\u6eda
I3420
sV\u83dc
I2720
sV\u675f
I1269
sV\u64de
I1326
sV\u5367
I1609
sV\u70e6
I3165
sV\u95e8
I561
sV\u96ea
I1847
sV\u8bec
I1617
sV\u8f6f
I1071
sV\u67f4
I2758
sV\u7b77
I223
sV\u58f6
I3516
sV\u5c79
I1988
sV\u517b
I1925
sV\u5efa
I3718
sV\u53fc
I3039
sV\u94fe
I356
sV\u8a00
I1889
sV\u6e83
I246
sV\u8902
I3385
sV\u6d85
I707
sV\u8087
I2269
sV\u6700
I2479
sV\u6789
I1550
sV\u9a8b
I2821
sV\u780c
I892
sV\u9f0e
I3059
sV\u5112
I1063
sV\u6897
I3337
sV\u8f99
I2275
sV\u4e18
I980
sV\u629b
I767
sV\u819d
I1656
sV\u601c
I352
sV\u5ba1
I1170
sV\u5a20
I1166
sV\u5c24
I2065
sV\u77a9
I2392
sV\u83b1
I262
sV\u8230
I3712
sV\u82df
I3356
sV\u7fb9
I3334
sV\u5e38
I2774
sV\u915e
I1379
sV\u578b
I1790
sV\u573e
I3610
sV\u8bc1
I2311
sV\u8346
I58
sV\u7acb
I339
sV\u854a
I1073
sV\u79cd
I2361
sV\u584c
I1365
sV\u53d1
I3148
sV\u5250
I3382
sV\u9152
I93
sV\u75d5
I3487
sV\u8fd9
I2279
sV\u6e58
I1721
sV\u82db
I182
sV\u6d5a
I152
sV\u84df
I3643
sV\u7be1
I2924
sV\u7ee3
I1813
sV\u5962
I3753
sV\u5de5
I3338
sV\u70e7
I1141
sV\u77e9
I111
sV\u5668
I893
sV\u5566
I261
sV\u886c
I2807
sV\u8f6e
I484
sV\u83f1
I402
sV\u6270
I1031
sV\u66f3
I1954
sV\u78f7
I391
sV\u5e78
I1795
sV\u51fd
I3443
sV\u707c
I2439
sV\u6a80
I1389
sV\u4e03
I869
sV\u6982
I3277
sV\u8386
I852
sV\u6709
I2073
sV\u4fed
I3699
sV\u7a0b
I2815
sV\u590d
I3260
sV\u788c
I451
sV\u5c0f
I1746
sV\u7f8e
I556
sV\u5192
I540
sV\u6817
I328
sV\u6b96
I2326
sV\u4f19
I3601
sV\u4f9b
I3343
sV\u9e23
I613
sV\u501a
I1979
sV\u9ca4
I323
sV\u53a6
I1686
sV\u7729
I1841
sV\u692d
I1517
sV\u80f3
I3316
sV\u6c2f
I470
sV\u4fae
I1631
sV\u7837
I1160
sV\u5bb6
I3666
sV\u5f39
I2974
sV\u5eb8
I2050
sV\u523b
I193
sV\u70bc
I358
sV\u4e43
I661
sV\u7eca
I2567
sV\u6d45
I919
sV\u6cc4
I1770
sV\u6749
I1116
sV\u5c4f
I839
sV\u5351
I2600
sV\u72d0
I3520
sV\u8857
I15
sV\u6bd6
I2633
sV\u4f59
I2089
sV\u4ed8
I3262
sV\u625b
I173
sV\u80dc
I1185
sV\u67de
I2486
sV\u7ae0
I2247
sV\u53e6
I413
sV\u9769
I3319
sV\u96e8
I2099
sV\u95ea
I1121
sV\u4fee
I1806
sV\u9877
I974
sV\u5f79
I1990
sV\u7ef8
I2852
sV\u717d
I1119
sV\u77fe
I3161
sV\u8f83
I8
sV\u8206
I2088
sV\u6708
I2153
sV\u5b8b
I1321
sV\u788d
I2503
sV\u552c
I3525
sV\u5012
I2984
sV\u5495
I3364
sV\u4f18
I2062
sV\u8c1a
I1909
sV\u809d
I3286
sV\u659f
I2282
sV\u7a84
I2226
sV\u9aa1
I496
sV\u7ca5
I2371
sV\u5728
I2177
sV\u8bab
I899
sV\u7586
I3724
sV\u68ad
I1358
sV\u6daf
I1874
sV\u62b1
I2591
sV\u6109
I2093
sV\u64b5
I694
sV\u9b3c
I3411
sV\u5a36
I996
sV\u7eb9
I1595
sV\u7f38
I3295
sV\u53bb
I999
sV\u5c3a
I2834
sV\u70bd
I2838
sV\u4fc3
I2922
sV\u6842
I3414
sV\u6cc5
I986
sV\u8d44
I2443
sV\u51e0
I3640
sV\u90ed
I3423
sV\u9636
I16
sV\u62b9
I626
sV\u7554
I759
sV\u4ed9
I1692
sV\u6f58
I755
sV\u865e
I2086
sV\u5ae1
I3012
sV\u8beb
I36
sV\u8def
I453
sV\u8d3c
I2203
sV\u82f1
I2027
sV\u67f3
I424
sV\u5792
I304
sV\u8574
I2163
sV\u5a76
I1171
sV\u90fd
I3080
sV\u517c
I3686
sV\u767e
I2547
sV\u8c05
I370
sV\u7740
I2438
sV\u7b0b
I1356
sV\u780d
I168
sV\u5211
I1789
sV\u9713
I680
sV\u7092
I2791
sV\u5415
I462
sV\u7898
I3025
sV\u4e19
I2675
sV\u631b
I476
sV\u54ee
I1739
sV\u601d
I1303
sV\u819c
I622
sV\u5ba0
I2843
sV\u51ac
I3065
sV\u7629
I2946
sV\u8d2f
I3399
sV\u4eae
I369
sV\u8231
I2730
sV\u80b2
I2118
sV\u5937
I1967
sV\u533b
I1960
sV\u96be
I667
sV\u914b
I985
sV\u8bc0
I142
sV\u4f43
I3031
sV\u88c2
I385
sV\u6dc4
I2446
sV\u62c6
I2757
sV\u7b4b
I39
sV\u60f6
I3566
sV\u9ece
I315
sV\u5251
I3713
sV\u73d0
I3155
sV\u5455
I739
sV\u75d4
I2351
sV\u4e59
I1981
sV\u6273
I2556
sV\u9ed1
I3486
sV\u5c65
I466
sV\u7167
I2266
sV\u7f50
I3396
sV\u9669
I1704
sV\u70fd
I3219
sV\u54ea
I654
sV\u5bd3
I2121
sV\u5bfc
I2987
sV\u8475
I240
sV\u4f7f
I1206
sV\u7977
I2986
sV\u68d5
I2457
sV\u957f
I2775
sV\u56fe
I1491
sV\u8d81
I2806
sV\u6f02
I821
sV\u6f14
I1898
sV\u6687
I1681
sV\u5e0c
I1654
sV\u9a8f
I154
sV\u8eac
I3344
sV\u7591
I1972
sV\u7410
I1361
sV\u9093
I3002
sV\u5395
I2739
sV\u679d
I2313
sV\u5531
I2781
sV\u96a7
I1352
sV\u9526
I46
sV\u6cab
I631
sV\u732a
I2384
sV\u6234
I2952
sV\u5eb7
I170
sV\u59b9
I559
sV\u7838
I2169
sV\u94bb
I2475
sV\u7b3a
I3683
sV\u52bf
I1219
sV\u6c40
I1464
sV\u6bc5
I1998
sV\u86c7
I1150
sV\u5760
I2426
sV\u5fcd
I1038
sV\u5e4c
I3569
sV\u594e
I241
sV\u5450
I655
sV\u9752
I964
sV\u5254
I1431
sV\u4ed7
I2257
sV\u8d56
I264
sV\u62df
I684
sV\u5de1
I1856
sV\u5c60
I1495
sV\u7f62
I2543
sV\u5f62
I1791
sV\u5be5
I376
sV\u7566
I878
sV\u8e66
I2620
sV\u8fed
I3051
sV\u9e93
I450
sV\u65f1
I3449
sV\u60f3
I1726
sV\u6912
I3733
sV\u5ef7
I1465
sV\u5b7a
I1064
sV\u77fd
I1646
sV\u52ff
I1637
sV\u6d01
I25
sV\u8d41
I398
sV\u6a84
I1664
sV\u8109
I516
sV\u54ed
I211
sV\u5316
I3537
sV\u9511
I1433
sV\u5490
I3272
sV\u7792
I517
sV\u6e17
I1175
sV\u671d
I2786
sV\u869c
I1871
sV\u821f
I2366
sV\u751a
I1172
sV\u9aa4
I2379
sV\u8f70
I3496
sV\u50a8
I2867
sV\u4eac
I64
sV\u64b0
I2412
sV\u8033
I3142
sV\u8335
I2011
sV\u5939
I3664
sV\u543b
I1596
sV\u56bc
I3742
sV\u6d41
I423
sV\u6843
I1419
sV\u8fc2
I2081
sV\u4f4d
I1584
sV\u5c4b
I1618
sV\u83ca
I108
sV\u9551
I2577
sV\u9053
I2991
sV\u5355
I2964
sV\u5ea6
I3092
sV\u6dd6
I673
sV\u68d8
I3628
sV\u5f69
I2719
sV\u8bda
I2818
sV\u7ffb
I3159
sV\u7ce0
I172
sV\u78a7
I2628
sV\u90e8
I2708
sV\u8c6b
I2124
sV\u53ea
I2334
sV\u6f6d
I1391
sV\u4eec
I563
sV\u8fa9
I2655
sV\u6073
I199
sV\u62f4
I1284
sV\u5979
I1368
sV\u547b
I1162
sV\u5bfa
I1309
sV\u76fc
I758
sV\u527f
I4
sV\u62d4
I2536
sV\u6c81
I963
sV\u9601
I3323
sV\u6d2a
I3501
sV\u8089
I1060
sV\u6108
I2115
sV\u620a
I1633
sV\u5b8f
I3502
sV\u8c89
I3477
sV\u9510
I1075
sV\u8482
I3016
sV\u8f97
I2236
sV\u6c16
I660
sV\u859b
I1844
sV\u871c
I583
sV\u7d20
I1331
sV\u7aa5
I239
sV\u77a7
I938
sV\u5426
I3227
sV\u722a
I2407
sV\u4ead
I1467
sV\u7728
I2216
sV\u8baf
I1860
sV\u81b3
I1125
sV\u62b5
I3013
sV\u90ae
I2067
sV\u5fb7
I2993
sV\u5938
I217
sV\u55bb
I2112
sV\u773c
I1896
sV\u53bf
I1707
sV\u8c34
I920
sV\u6363
I2982
sV\u6446
I2548
sV\u6148
I2905
sV\u9ecd
I1263
sV\u6863
I2980
sV\u54d1
I1876
sV\u9550
I3308
sV\u810f
I2183
sV\u4fd7
I1330
sV\u88d9
I1019
sV\u66dd
I862
sV\u675c
I3089
sV\u5ce1
I1682
sV\u5e62
I2882
sV\u7ae5
I1478
sV\u5b64
I3368
sV\u97e7
I1039
sV\u70e9
I3588
sV\u5168
I1005
sV\u6deb
I2020
sV\u526a
I3700
sV\u4f6c
I291
sV\u6bef
I1395
sV\u683c
I3321
sV\u6570
I1274
sV\u81f3
I2340
sV\u6eb6
I1054
sV\u58f9
I1959
sV\u7978
I3608
sV\u95fb
I1594
sV\u7a7a
I202
sV\u8845
I1783
sV\u903c
I2622
sV\u707e
I2173
sV\u8c01
I1288
sV\u796d
I3648
sV\u628a
I2539
sV\u7f8c
I928
sV\u788e
I1348
sV\u5411
I1733
sV\u76c5
I2356
sV\u4f17
I2365
sV\u8fd0
I2162
sV\u75c5
I2678
sV\u679c
I3425
sV\u631f
I1759
sV\u7ea2
I3504
sV\u5a25
I3132
sV\u5ba4
I1231
sV\u94a6
I953
sV\u8d2b
I828
sV\u52aa
I724
sV\u6e2d
I1585
sV\u65b0
I1779
sV\u8235
I3122
sV\u8e48
I2983
sV\u953b
I3097
sV\u533f
I686
sV\u6c41
I2320
sV\u6dc0
I3036
sV\u6d4a
I2440
sV\u8bc4
I838
sV\u8747
I2037
sV\u86fe
I3126
sV\u61c8
I1769
sV\u7fcc
I2009
sV\u9b4f
I1583
sV\u98ce
I3217
sV\u76d2
I3476
sV\u53d4
I1250
sV\u8859
I1873
sV\u655b
I354
sV\u874e
I1756
sV\u67dc
I3415
sV\u635f
I1355
sV\u51a4
I2128
sV\u5c61
I467
sV\u7ee2
I133
sV\u54e6
I734
sV\u8d6b
I3481
sV\u7ea6
I2147
sV\u8e6d
I2745
sV\u5ed3
I253
sV\u68ee
I1101
sV\u8471
I2913
sV\u66f2
I990
sV\u63f4
I2133
sV\u9879
I1729
sV\u79f8
I14
sV\u767d
I2545
sV\u537f
I968
sV\u9c81
I449
sV\u6487
I824
sV\u8389
I325
sV\u6208
I3314
sV\u810a
I3641
sV\u9610
I2768
sV\u5195
I589
sV\u5014
I138
sV\u8c22
I1772
sV\u641c
I1324
sV\u609f
I1639
sV\u631e
I1371
sV\u7fa1
I1710
sV\u7d22
I1362
sV\u59a5
I1518
sV\u5824
I3003
sV\u94a7
I146
sV\u53a9
I94
sV\u5228
I769
sV\u8eab
I1164
sV\u8c2c
I617
sV\u68af
I1430
sV\u6089
I1655
sV\u82b3
I3174
sV\u5fa1
I2114
sV\u5bb9
I1055
sV\u793a
I1211
sV\u75bd
I105
sV\u743c
I977
sV\u733e
I3533
sV\u8fc1
I908
sV\u8d42
I454
sV\u89c5
I581
sV\u6746
I3283
sV\u63c9
I1058
sV\u814a
I259
sV\u5dcd
I1558
sV\u9650
I1713
sV\u71d5
I1901
sV\u6bd9
I2632
sV\u86db
I2382
sV\u695a
I2865
sV\u60df
I1566
sV\u635e
I287
sV\u7ae3
I151
sV\u59e5
I292
sV\u7766
I650
sV\u916a
I293
sV\u67f1
I2396
sV\u6670
I1647
sV\u62f3
I1007
sV\u6572
I935
sV\u5bf9
I3104
sV\u997a
I1
sV\u95fd
I610
sV\u547c
I3512
sV\u4f01
I889
sV\u6d82
I1494
sV\u6905
I1977
sV\u8884
I2522
sV\u6309
I2510
sV\u818a
I2695
sV\u9690
I2025
sV\u4e00
I1958
sV\u7094
I1012
sV\u8c17
I2764
sV\u8f96
I1680
sV\u849c
I1341
sV\u51c4
I870
sV\u7ea0
I87
sV\u98a4
I2769
sV\u5427
I2531
sV\u57a6
I198
sV\u7329
I1786
sV\u52a8
I3068
sV\u4e2b
I1868
sV\u8d2d
I3360
sV\u8bae
I2004
sV\u6731
I2383
sV\u6233
I2898
sV\u9ab8
I3429
sV\u563b
I1648
sV\u901e
I2820
sV\u4ec0
I1199
sV\u6447
I1932
sV\u6349
I2430
sV\u62c8
I691
sV\u61ca
I2525
sV\u5751
I200
sV\u76d0
I1884
sV\u75d2
I1924
sV\u6c57
I3453
sV\u655d
I2638
sV\u5de2
I2789
sV\u7965
I1724
sV\u58e4
I1026
sV\u97e6
I1561
sV\u66f0
I2146
sV\u8273
I1899
sV\u7b79
I2850
sV\u56fd
I3424
sV\u767b
I2998
sV\u54fc
I3491
sV\u907f
I2644
sV\u8e81
I2193
sV\u6301
I2825
sV\u6b83
I1911
sV\u822a
I3457
sV\u6885
I547
sV\u6587
I1593
sV\u6606
I248
sV\u6289
I136
sV\u5f8b
I471
sV\u9c8d
I2595
sV\u998f
I419
sV\u7a0e
I1291
sV\u7691
I2498
sV\u7095
I176
sV\u4e16
I1213
sV\u821e
I1629
sV\u9f20
I1264
sV\u5ba3
I1835
sV\u55a7
I1834
sV\u7626
I1242
sV\u52a9
I2397
sV\u6d4e
I3651
sV\u8fab
I2656
sV\u502a
I681
sV\u8d2c
I2649
sV\u63b3
I446
sV\u9632
I3178
sV\u77bb
I2229
sV\u54bd
I1880
sV\u4ec1
I1036
sV\u9893
I1502
sV\u6c42
I983
sV\u88c5
I2417
sV\u8944
I1720
sV\u62c9
I256
sV\u7ed8
I3592
sV\u804a
I372
sV\u5d4c
I922
sV\u76d1
I3680
sV\u5750
I2489
sV\u6237
I3529
sV\u5154
I1498
sV\u4e56
I3386
sV\u5065
I3711
sV\u84dd
I265
sV\u8feb
I846
sV\u5b58
I2935
sV\u6770
I21
sV\u5992
I3094
sV\u5df7
I1730
sV\u5e76
I2679
sV\u7af9
I2388
sV\u987a
I1294
sV\u557c
I1437
sV\u51ff
I2187
sV\u4e01
I3054
sV\u6c82
I1973
sV\u6805
I2217
sV\u6388
I1239
sV\u590f
I1687
sV\u9611
I270
sV\u5492
I2375
sV\u7194
I1053
sV\u6d17
I1671
sV\u671b
I1554
sV\u841d
I490
sV\u659c
I1762
sV\u611f
I3288
sV\u9e21
I3622
sV\u5229
I334
sV\u53a8
I2859
sV\u6f2b
I524
sV\u90aa
I1761
sV\u8c2d
I1392
sV\u84b2
I855
sV\u5eb6
I1273
sV\u75bc
I1428
sV\u513f
I3141
sV\u6fc0
I3620
sV\u6845
I1563
sV\u89c4
I3404
sV\u86c6
I989
sV\u7ecd
I1148
sV\u60ca
I65
sV\u8749
I2762
sV\u594f
I2465
sV\u5353
I2432
sV\u4ed6
I1366
sV\u6a59
I2811
sV\u9525
I2423
sV\u68da
I791
sV\u82de
I2580
sV\u5fe0
I2357
sV\u5b63
I3646
sV\u80fa
I2513
sV\u90af
I3438
sV\u79e4
I2822
sV\u5269
I1184
sV\u6dec
I2932
sV\u8671
I1194
sV\u81f4
I2341
sV\u5ef6
I1888
sV\u9a79
I107
sV\u5bf8
I2936
sV\u78fa
I3561
sV\u547d
I616
sV\u917f
I698
sV\u52fe
I3354
sV\u9981
I675
sV\u7483
I344
sV\u6daa
I3242
sV\u7785
I2853
sV\u9a87
I3435
sV\u808b
I306
sV\u5f0a
I2639
sV\u820c
I1151
sV\u50ac
I2928
sV\u8f95
I2134
sV\u4e14
I950
sV\u7599
I3317
sV\u5b9d
I2590
sV\u5a1c
I658
sV\u5e9f
I3193
sV\u6020
I2960
sV\u6da9
I1100
sV\u8c28
I48
sV\u4f2a
I1574
sV\u722c
I744
sV\u552e
I1240
sV\u7830
I785
sV\u7cb3
I67
sV\u65b9
I3175
sV\u673a
I3612
sV\u8bbd
I3223
sV\u4ebf
I1989
sV\u6d3e
I753
sV\u7239
I3048
sV\u94c3
I405
sV\u9644
I3269
sV\u5c48
I992
sV\u60cb
I1542
sV\u63cd
I2466
sV\u6850
I1472
sV\u4e54
I939
sV\u72d7
I3357
sV\u5458
I2136
sV\u575a
I3681
sV\u5bdd
I962
sV\u7edf
I1482
sV\u6362
I3549
sV\u67e5
I2750
sV\u6664
I1635
sV\u70eb
I1413
sV\u53ed
I2530
sV\u76ef
I3055
sV\u556e
I704
sV\u5ff5
I696
sV\u5e74
I692
sV\u62f7
I178
sV\u6478
I618
sV\u8bfd
I3190
sV\u6c28
I2507
sV\u5080
I243
sV\u7403
I982
sV\u5382
I2778
sV\u7a97
I2881
sV\u5a07
I3741
sV\u5986
I2418
sV\u7f8a
I1919
sV\u660f
I3594
sV\u8f6c
I2411
sV\u6c13
I529
sV\u61c2
I3067
sV\u4e94
I1626
sV\u5217
I384
sV\u9519
I2942
sV\u7a9c
I2925
sV\u9e1f
I699
sV\u60a0
I2063
sV\u63a2
I1398
sV\u86a4
I2192
sV\u8d29
I3169
sV\u7bc6
I2414
sV\u72ac
I1008
sV\u75ae
I2880
sV\u5931
I1188
sV\u78b0
I798
sV\u8237
I1698
sV\u7ec8
I2360
sV\u6539
I3276
sV\u84b8
I2297
sV\u87ba
I491
sV\u8dbe
I2333
sV\u5141
I2161
sV\u53c2
I2723
sV\u96c4
I1804
sV\u59c6
I641
sV\u514d
I590
sV\u604b
I357
sV\u634d
I3448
sV\u62cc
I2562
sV\u864f
I448
sV\u6bd2
I3082
sV\u4f55
I3474
sV\u6ed4
I1416
sV\u5978
I3689
sV\u7559
I420
sV\u5b5d
I1747
sV\u5dde
I2368
sV\u60e0
I3583
sV\u8463
I3066
sV\u6765
I263
sV\u86e4
I3322
sV\u89e6
I2870
sV\u6d69
I3466
sV\u6ce8
I2403
sV\u706b
I3602
sV\u8fea
I3006
sV\u736d
I1370
sV\u72ec
I3084
sV\u95ee
I1599
sV\u9971
I2589
sV\u58f0
I1176
sV\u7c73
I579
sV\u7ef4
I1569
sV\u6e7f
I1191
sV\u4f97
I3069
sV\u9685
I2096
sV\u9704
I1737
sV\u5b87
I2103
sV\u5806
I3101
sV\u7c89
I3205
sV\u7bad
I3709
sV\u618b
I2663
sV\u828d
I1142
sV\u840e
I1571
sV\u8910
I3482
sV\u4e95
I69
sV\u6eaf
I1336
sV\u5499
I428
sV\u7518
I3282
sV\u7a9d
I1606
sV\u704c
I3398
sV\u7cd9
I2735
sV\u8d28
I2349
sV\u8e2a
I2458
sV\u94b3
I915
sV\u542e
I1292
sV\u78b1
I3694
sV\u5b5c
I2447
sV\u5676
I3273
sV\u7eb5
I2462
sV\u7f34
I2
sV\u906d
I2185
sV\u8036
I1945
sV\u4fde
I2090
sV\u7ef7
I2617
sV\u4fbf
I2651
sV\u7634
I2259
sV\u70c1
I1299
sV\u6361
I3697
sV\u5242
I3649
sV\u96c5
I1875
sV\u5bc7
I209
sV\u4e0d
I2704
sV\u9e4a
I1015
sV\u62cd
I748
sV\u634c
I2528
sV\u67cf
I2546
sV\u4ed5
I1224
sV\u53d7
I1241
sV\u7565
I482
sV\u50bb
I1109
sV\u7fdf
I3011
sV\u5c5e
I1265
sV\u80e1
I3518
sV\u7f3a
I1011
sV\u8be7
I2756
sV\u72ed
I1684
sV\u9970
I1227
sV\u5df3
I1315
sV\u7ef5
I588
sV\u6076
I3133
sV\u5a74
I2029
sV\u667a
I2346
sV\u6b7c
I3679
sV\u6c7e
I3204
sV\u9001
I1320
sV\u5180
I3645
sV\u9605
I2155
sV\u5784
I432
sV\u9886
I412
sV\u5c09
I1587
sV\u5e8a
I2883
sV\u820d
I1152
sV\u638c
I2251
sV\u6811
I1268
sV\u5317
I2601
sV\u7fc5
I2836
sV\u5b9c
I1974
sV\u5f1f
I3019
sV\u62a2
I932
sV\u6625
I2891
sV\u82c7
I1570
sV\u6b27
I735
sV\u68a6
I570
sV\u8c29
I525
sV\u6da8
I2252
sV\u6eaa
I1661
sV\u772f
I572
sV\u94ae
I717
sV\u9e35
I1513
sV\u8bbc
I1322
sV\u6cbe
I2233
sV\u9041
I3113
sV\u51c0
I82
sV\u5543
I197
sV\u72c2
I230
sV\u9645
I3658
sV\u5c49
I1444
sV\u8bcd
I2907
sV\u814b
I1955
sV\u5eca
I283
sV\u624d
I2714
sV\u83cc
I145
sV\u674f
I1796
sV\u64ce
I970
sV\u6851
I1091
sV\u69d0
I3539
sV\u6d53
I720
sV\u6ea2
I2002
sV\u8fd4
I3167
sV\u5357
I665
sV\u75d8
I3079
sV\u56da
I984
sV\u9cde
I395
sV\u51d1
I2918
sV\u6563
I1090
sV\u62e2
I433
sV\u6b67
I877
sV\u8de8
I220
sV\u516b
I2533
sV\u4eea
I1970
sV\u53ec
I2270
sV\u576f
I799
sV\u74ee
I1602
sV\u79f0
I2809
sV\u6377
I22
sV\u61a8
I3437
sV\u6479
I619
sV\u8f7f
I7
sV\u5200
I2981
sV\u9102
I3137
sV\u5404
I3327
sV\u9887
I842
sV\u7b06
I2532
sV\u5e08
I1187
sV\u828b
I2108
sV\u7d0a
I1598
sV\u800c
I3140
sV\u8912
I2583
sV\u6d95
I1442
sV\u6c14
I894
sV\u7316
I2771
sV\u5618
I1818
sV\u951a
I534
sV\u7c9f
I1333
sV\u9504
I2861
sV\u65a5
I2837
sV\u8424
I2034
sV\u68a7
I1621
sV\u4fa9
I224
sV\u52ab
I18
sV\u8d2a
I1385
sV\u54af
I158
sV\u8e6c
I2996
sV\u7bb1
I1719
sV\u6e89
I3280
sV\u7eb3
I659
sV\u8336
I2749
sV\u8638
I2239
sV\u538b
I1863
sV\u6cbf
I1893
sV\u6f3e
I1927
sV\u53c1
I1088
sV\u55c5
I1809
sV\u508d
I2578
sV\u7a92
I2354
sV\u804c
I2323
sV\u674e
I321
sV\u8bd1
I2006
sV\u6ed3
I2451
sV\u5356
I514
sV\u560e
I3274
sV\u753b
I3535
sV\u7cdf
I2186
sV\u63e1
I1610
sV\u7a91
I1935
sV\u6162
I523
sV\u65e5
I1047
sV\u8b66
I70
sV\u4fe9
I346
sV\u6d6a
I286
sV\u51ed
I836
sV\u7bf1
I316
sV\u9a70
I2830
sV\u7ef3
I1181
sV\u9972
I1314
sV\u5956
I3727
sV\u733f
I2138
sV\u6376
I2888
sV\u87f9
I1768
sV\u5f18
I3503
sV\u69fd
I2736
sV\u7280
I1663
sV\u9505
I3422
sV\u7f09
I3625
sV\u808c
I3617
sV\u640f
I2688
sV\u4e13
I2409
sV\u9017
I3078
sV\u7396
I88
sV\u9698
I2505
sV\u759a
I101
sV\u989c
I1890
sV\u7f9e
I1807
sV\u6321
I2977
sV\u62a0
I206
sV\u64a4
I2794
sV\u4ea8
I3492
sV\u522b
I2664
sV\u54c6
I3115
sV\u70ac
I125
sV\u542f
I890
sV\u57ae
I218
sV\u9e33
I2126
sV\u8d9f
I1412
sV\u8dcb
I2537
sV\u693d
I2875
sV\u8d4b
I3259
sV\u8fbe
I2944
sV\u5341
I1195
sV\u7545
I2780
sV\u54c4
I3497
sV\u5bc6
I584
sV\u4e4d
I2220
sV\u624b
I1235
sV\u5976
I662
sV\u80cc
I2603
sV\u5fcc
I3657
sV\u4e53
I762
sV\u89d2
I0
sV\u7b4f
I3150
sV\u9057
I1968
sV\u53d6
I995
sV\u9759
I73
sV\u76d8
I756
sV\u795d
I2404
sV\u5524
I3551
sV\u8361
I2979
sV\u8be6
I1725
sV\u4f69
I781
sV\u6ee8
I2669
sV\u8dea
I3416
sV\u516d
I425
sV\u70ec
I54
sV\u77ee
I2501
sV\u5e73
I835
sV\u65fa
I1553
sV\u5634
I2477
sV\u7281
I314
sV\u5300
I2159
sV\u5783
I255
sV\u9002
I1223
sV\u7504
I2284
sV\u5987
I3270
sV\u5c0a
I2481
sV\u608d
I3451
sV\u660e
I611
sV\u8f93
I1249
sV\u85af
I1258
sV\u5197
I1057
sV\u9699
I1673
sV\u5b9b
I1543
sV\u989d
I3130
sV\u591c
I1956
sV\u62a1
I483
sV\u6320
I669
sV\u67a3
I2189
sV\u4ea9
I640
sV\u73ab
I545
sV\u70ad
I1400
sV\u75af
I3218
sV\u962e
I1072
sV\u73ed
I2554
sV\u8236
I2693
sV\u643a
I1760
sV\u4e3e
I112
sV\u8c61
I1734
sV\u57c3
I2493
sV\u9042
I1351
sV\u94c5
I906
sV\u5544
I2437
sV\u7a46
I652
sV\u5ec9
I351
sV\u5c4a
I37
sV\u614c
I3559
sV\u65cf
I2470
sV\u864e
I3524
sV\u6cd5
I3154
sV\u8d54
I778
sV\u5256
I848
sV\u745a
I3515
sV\u6062
I3576
sV\u6ee9
I1387
sV\u8f68
I3410
sV\u53eb
I9
sV\u74e6
I1526
sV\u70ed
I1034
sV\u916c
I2845
sV\u95ef
I2884
sV\u5b70
I1256
sV\u6276
I3232
sV\u86f9
I2053
sV\u8bfb
I3085
sV\u85e9
I3156
sV\u697c
I435
sV\u4e7e
I912
sV\u5201
I3042
sV\u5703
I858
sV\u7405
I280
sV\u5584
I1126
sV\u5907
I2608
sV\u9a86
I500
sV\u5f88
I3488
sV\u5996
I1930
sV\u800d
I1278
sV\u6f13
I319
sV\u8892
I1396
sV\u9798
I942
sV\u7b1b
I3008
sV\u901b
I3402
sV\u5e9e
I763
sV\u63a0
I481
sV\u80a2
I2318
sV\u8425
I2035
sV\u65a4
I40
sV\u75f0
I1390
sV\u6e29
I1591
sV\u4fa8
I940
sV\u732b
I532
sV\u5a46
I843
sV\u71ac
I2520
sV\u952f
I121
sV\u76ae
I810
sV\u5a31
I2098
sV\u5bb0
I2174
sV\u5609
I3662
sV\u961f
I3103
sV\u9119
I2625
sV\u683d
I2171
sV\u8d3f
I3585
sV\u5241
I3123
sV\u70c2
I278
sV\u5947
I876
sV\u7cca
I3521
sV\u604d
I3570
sV\u6000
I3541
sV\u654f
I608
sV\u714c
I3567
sV\u5e26
I2953
sV\u4f53
I1438
sV\u68d2
I2574
sV\u6c55
I1127
sV\u85cf
I2733
sV\u9157
I1823
sV\u7b5b
I1112
sV\u785d
I1736
sV\u59dc
I3720
sV\u7ede
I3
sV\u83e0
I2681
sV\u85e4
I1426
sV\u5b50
I2452
sV\u536b
I1589
sV\u6cea
I308
sV\u706d
I604
sV\u76ee
I649
sV\u9a71
I993
sV\u5df4
I2535
sV\u6177
I171
sV\u54a8
I2442
sV\u8679
I3499
sV\u6b7b
I1307
sV\u5385
I1461
sV\u5e87
I2635
sV\u5f80
I1552
sV\u848b
I3725
sV\u878d
I1052
sV\u660c
I2770
sV\u8c79
I2594
sV\u86d9
I1523
sV\u7199
I1642
sV\u5018
I1409
sV\u5c9b
I2985
sV\u5e1c
I2343
sV\u7a9f
I212
sV\u65a1
I1608
sV\u60a3
I3550
sV\u63a5
I12
sV\u4ea7
I2767
sV\u8d26
I2256
sV\u97ad
I2646
sV\u72af
I3170
sV\u7389
I2106
sV\u78b3
I1397
sV\u5bb5
I1743
sV\u6536
I1234
sV\u8038
I1317
sV\u6cbb
I2353
sV\u633a
I1469
sV\u8fbd
I377
sV\u5440
I1867
sV\u70c3
I1463
sV\u7ec7
I2322
sV\u79c9
I2676
sV\u664c
I1134
sV\u82cf
I1328
sV\u614e
I1174
sV\u8dd1
I772
sV\u6c50
I1662
sV\u8bd5
I1233
sV\u76d7
I2992
sV\u5cb8
I2512
sV\u535a
I2686
sV\u803b
I2831
sV\u7adf
I80
sV\u795e
I1168
sV\u6d66
I860
sV\u8868
I2661
sV\u6b6a
I1528
sV\u97ed
I89
sV\u566c
I1222
sV\u916e
I1473
sV\u5df1
I3642
sV\u58f3
I188
sV\u7f72
I1261
sV\u9a74
I461
sV\u6cfb
I1771
sV\u8ffd
I2424
sV\u9014
I1493
sV\u9501
I1363
sV\u5480
I110
sV\u9003
I1420
sV\u6c6a
I1547
sV\u5305
I2582
sV\u5c97
I3298
sV\u9888
I72
sV\u670d
I3240
sV\u868c
I2576
sV\u620f
I1674
sV\u618e
I2206
sV\u6813
I1283
sV\u7119
I2610
sV\u539a
I3509
sV\u7f1d
I3222
sV\u5e9c
I3254
sV\u5a1f
I129
sV\u9ec4
I3560
sV\u8521
I2721
sV\u67a2
I1245
sV\u6325
I3573
sV\u8247
I1470
sV\u4e27
I1093
sV\u6da6
I1077
sV\u68a8
I313
sV\u542b
I3440
sV\u572d
I3405
sV\u60b8
I3650
sV\u63ba
I2761
sV\u8d58
I2425
sV\u8d74
I3256
sV\u9541
I554
sV\u94c0
I2068
sV\u57c2
I3335
sV\u72c4
I3009
sV\u5949
I3224
sV\u6d51
I3597
sV\u66f9
I2737
sV\u6853
I3546
sV\u6fd2
I2668
sV\u70d8
I3498
sV\u5f5d
I1976
sV\u7edc
I501
sV\u8151
I3253
sV\u526f
I3257
sV\u73a9
I1533
sV\u5b75
I3231
sV\u65f6
I1198
sV\u8179
I3265
sV\u80f8
I1801
sV\u6e7e
I1532
sV\u8f7d
I2175
sV\u4eab
I1728
sV\u9500
I1741
sV\u9602
I3478
sV\u5c06
I3721
sV\u7889
I3038
sV\u658b
I2224
sV\u638f
I1414
sV\u600e
I2204
sV\u7099
I2350
sV\u521a
I3293
sV\u82a5
I31
sV\u6324
I3639
sV\u4fa7
I2741
sV\u8c26
I911
sV\u75ab
I1994
sV\u6a2a
I3493
sV\u58d5
I3458
sV\u73af
I3545
sV\u62dc
I2551
sV\u7cb1
I363
sV\u67b7
I3663
sV\u6f88
I2797
sV\u8138
I355
sV\u4f3c
I1313
sV\u6bbf
I3037
sV\u54c1
I829
sV\u9540
I3090
sV\u71c3
I1022
sV\u7948
I883
sV\u65cb
I1837
sV\u63cf
I596
sV\u8d50
I2910
sV\u4e52
I831
sV\u77d7
I2868
sV\u70d9
I294
sV\u7edd
I143
sV\u5bdf
I2753
sV\u585e
I1085
sV\u81e3
I2799
sV\u593a
I3117
sV\u82e5
I1078
sV\u7267
I651
sV\u56ed
I2135
sV\u776c
I2716
sV\u53ef
I190
sV\u906e
I2271
sV\u5e72
I3281
sV\u60f9
I1033
sV\u6dfb
I1446
sV\u827a
I1984
sV\u4efd
I3207
sV\u586b
I1447
sV\u5401
I2110
sV\u5580
I155
sV\u7682
I2196
sV\u7384
I1838
sV\u5988
I502
sV\u6c11
I605
sV\u4e92
I3527
sV\u5496
I156
sV\u5019
I3510
sV\u9761
I574
sV\u5e1d
I3018
sV\u589e
I2205
sV\u9171
I3730
sV\u6784
I3359
sV\u6ca6
I487
sV\u69a8
I2218
sV\u752b
I3246
sV\u77ac
I1293
sV\u70ae
I770
sV\u5c31
I100
sV\u7eb2
I3297
sV\u5bb4
I1908
sV\u53ca
I3632
sV\u6d3b
I3600
sV\u4e3d
I329
sV\u6ecb
I2445
sV\u76f4
I2324
sV\u5143
I2129
sV\u76c2
I2084
sV\u634f
I701
sV\u80ce
I1374
sV\u8fd8
I3547
sV\u6bd4
I2624
sV\u5757
I222
sV\u6458
I2223
sV\u5b5f
I571
sV\u98de
I3187
sV\u8461
I853
sV\u65e0
I1619
sV\u8f67
I2213
sV\u6869
I2415
sV\u536f
I538
sV\u5c71
I1117
sV\u8e29
I2717
sV\u5973
I726
sV\u8fa8
I2654
sV\u632b
I2941
sV\u8881
I2131
sV\u6caa
I3528
sV\u5185
I676
sV\u7f06
I277
sV\u5b89
I2508
sV\u840c
I564
sV\u630e
I219
sV\u8f91
I3629
sV\u4e58
I2814
sV\u8a93
I1217
sV\u6d12
I1081
sV\u552f
I1565
sV\u9716
I392
sV\u5218
I421
sV\u9e2d
I1866
sV\u56db
I1311
sV\u589f
I1814
sV\u7f04
I3690
sV\u6620
I2044
sV\u6ca7
I2732
sV\u4f26
I485
sV\u8ba9
I1029
sV\u892a
I1505
sV\u542c
I1462
sV\u70af
I83
sV\u732e
I1706
sV\u5ab3
I1668
sV\u7834
I844
sV\u83b9
I2033
sV\u6b3e
I227
sV\u9640
I1514
sV\u52c3
I2687
sV\u86cb
I2975
sV\u634e
I1139
sV\u8fd1
I53
sV\u4e50
I297
sV\u6854
I20
sV\u54d7
I3531
sV\u9756
I79
sV\u53d9
I1824
sV\u515a
I2978
sV\u5ddd
I2873
sV\u98df
I1200
sV\u62e3
I3696
sV\u6562
I3290
sV\u6064
I1828
sV\u6f66
I378
sV\u5766
I1394
sV\u5510
I1407
sV\u70ef
I1660
sV\u68fa
I3389
sV\u7ff1
I2521
sV\u83e9
I854
sV\u8212
I1251
sV\u8776
I3050
sV\u4efb
I1040
sV\u817a
I1708
sV\u7701
I1182
sV\u62f1
I3350
sV\u5203
I1042
sV\u5582
I1582
sV\u6db8
I3480
sV\u5b97
I2459
sV\u7c07
I2921
sV\u598a
I1043
sV\u838e
I1103
sV\u4f11
I3754
sV\u6e90
I2139
sV\u5417
I510
sV\u5319
I2826
sV\u5e1b
I2692
sV\u919a
I573
sV\u919b
I1003
sV\u5b9e
I1202
sV\u8721
I258
sV\u4e1a
I1952
sV\u80a4
I3230
sV\u6c27
I1922
sV\u4fa6
I2289
sV\u762b
I1386
sV\u752d
I2618
sV\u54ac
I1938
sV\u5f31
I1079
sV\u7a33
I1597
sV\u78b4
I2751
sV\u8d64
I2835
sV\u8339
I1061
sV\u4e3b
I2394
sV\u541e
I1507
sV\u6d3d
I902
sV\u6cbc
I2264
sV\u8bbe
I1159
sV\u7741
I2299
sV\u96c0
I1018
sV\u5243
I1443
sV\u6cca
I2697
sV\u5145
I2839
sV\u5fc6
I1999
sV\u7b49
I2999
sV\u664b
I51
sV\u6da3
I3555
sV\u51cc
I408
sV\u4f51
I2076
sV\u88d4
I1996
sV\u52d8
I166
sV\u7cdc
I575
sV\u5bde
I633
sV\u6761
I1454
sV\u6263
I208
sV\u65e2
I3656
sV\u8165
I1785
sV\u55fd
I1327
sV\u956d
I299
sV\u94ec
I3325
sV\u706f
I2997
sV\u53ee
I3056
sV\u5f71
I2041
sV\u7ef0
I2899
sV\u9a73
I2698
sV\u5df2
I1980
sV\u9975
I3144
sV\u7528
I2060
sV\u6cfc
I841
sV\u8bfe
I195
sV\u9700
I1816
sV\u5085
I3261
sV\u7c27
I3563
sV\u5e06
I3157
sV\u818f
I3304
sV\u620e
I1048
sV\u4e91
I2157
sV\u4f10
I3151
sV\u7597
I374
sV\u901a
I1471
sV\u63a3
I2795
sV\u80a5
I3188
sV\u6124
I3209
sV\u6da7
I3717
sV\u57ab
I3029
sV\u682a
I2381
sV\u7f55
I3445
sV\u51af
I3221
sV\u522e
I3380
sV\u7eb1
I1108
sV\u5bb3
I3434
sV\u5934
I1486
sV\u82b9
I959
sV\u8338
I1049
sV\u6cbd
I3367
sV\u6d3c
I1524
sV\u96c1
I1904
sV\u5740
I2330
sV\u5144
I1799
sV\u53e0
I3053
sV\u5ac9
I3637
sV\u64cd
I2734
sV\u654c
I3007
sV\u624e
I2209
sV\u4ed1
I486
sV\u4f50
I2485
sV\u88d5
I2122
sV\u6954
I1753
sV\u5435
I2790
sV\u72d9
I104
sV\u505a
I2487
sV\u79df
I2467
sV\u6760
I3300
sV\u63e3
I2872
sV\u4e3a
I1567
sV\u4e66
I1254
sV\u62bd
I2844
sV\u77eb
I3745
sV\u94ed
I614
sV\u51ef
I162
sV\u5f70
I2248
sV\u5974
I723
sV\u65f7
I234
sV\u6676
I62
sV\u82f9
I833
sV\u7115
I3554
sV\u6cfd
I2202
sV\u7601
I2930
sV\u78c1
I2902
sV\u7184
I1659
sV\u5d07
I2842
sV\u5e86
I976
sV\u8c41
I3599
sV\u5b88
I1237
sV\u670b
I795
sV\u988a
I3669
sV\u840d
I834
sV\u658c
I2667
sV\u610f
I1997
sV\u4e11
I2854
sV\u8f90
I3234
sV\u8815
I1062
sV\u6994
I281
sV\u9517
I2277
sV\u7696
I1541
sV\u5219
I2201
sV\u5398
I312
sV\u5f1b
I2829
sV\u4e2d
I2355
sV\u5c1d
I2773
sV\u543c
I3508
sV\u591f
I3361
sV\u6a71
I2858
sV\u6323
I2298
sV\u6025
I3633
sV\u8d27
I3607
sV\u4ea6
I1995
sV\u8ba8
I1423
sV\u542d
I201
sV\u7ca4
I2152
sV\u5835
I3086
sV\u501f
I33
sV\u8537
I930
sV\u6548
I1752
sV\u8239
I2877
sV\u63b8
I2966
sV\u80ba
I3192
sV\u59cb
I1209
sV\u693f
I2892
sV\u5343
I907
sV\u94c2
I2689
sV\u9177
I214
sV\u7ec6
I1675
sV\u5a49
I1544
sV\u78ca
I301
sV\u62ce
I400
sV\u4fd0
I337
sV\u4fd8
I3239
sV\u76d6
I3279
sV\u7259
I1870
sV\u53d8
I2652
sV\u50da
I373
sV\u795f
I1353
sV\u7ade
I81
sV\u67e0
I709
sV\u8363
I1051
sV\u54fa
I2701
sV\u51cf
I3701
sV\u6ee6
I478
sV\u776b
I23
sV\u72ee
I1189
sV\u7ff0
I3446
sV\u8377
I3469
sV\u9875
I1950
sV\u6577
I3229
sV\u6279
I802
sV\u8f7b
I965
sV\u60fa
I1787
sV\u6c7d
I897
sV\u897f
I1644
sV\u7981
I52
sV\u5f85
I2958
sV\u6bd7
I806
sV\u5589
I3505
sV\u5408
I3475
sV\u888b
I2957
sV\u4e8f
I236
sV\u8010
I663
sV\u6795
I2290
sV\u6614
I1641
sV\u9a97
I819
sV\u5916
I1529
sV\u5c18
I2801
sV\u7f1a
I3271
sV\u6b22
I3544
sV\u4fa5
I3746
sV\u4e24
I365
sV\u7b54
I2945
sV\u65a9
I2235
sV\u8428
I1082
sV\u672a
I1577
sV\u8c6a
I3460
sV\u7eaf
I2896
sV\u54b3
I189
sV\u9634
I2016
sV\u6c38
I2057
sV\u4f3a
I1312
sV\u83bd
I531
sV\u653e
I3183
sV\u79c1
I1304
sV\u7840
I2866
sV\u9cc3
I1084
sV\u9b42
I3596
sV\u5fc5
I2640
sV\u52c7
I2059
sV\u5146
I2268
sV\u75c9
I78
sV\u5448
I2813
sV\u68cb
I875
sV\u574a
I3173
sV\u6bcd
I642
sV\u8d4e
I1255
sV\u80f6
I3736
sV\u6050
I203
sV\u8352
I3558
sV\u7956
I2471
sV\u4ee5
I1983
sV\u70db
I2389
sV\u7f5a
I3149
sV\u963b
I2473
sV\u76df
I567
sV\u6ce3
I898
sV\u6b62
I2332
sV\u62e7
I713
sV\u8c10
I1764
sV\u65e9
I2190
sV\u58eb
I1212
sV\u9a6c
I507
sV\u7d6e
I1829
sV\u7070
I3572
sV\u97f5
I2166
sV\u6df9
I1883
sV\u63fd
I274
sV\u627c
I3135
sV\u66ff
I1439
sV\u857e
I300
sV\u7901
I3734
sV\u566a
I2194
sV\u7f05
I593
sV\u5e84
I2416
sV\u5207
I948
sV\u5509
I2496
sV\u9488
I2288
sV\u680b
I3751
sV\u8e0f
I1373
sV\u6d8e
I1700
sV\u8111
I670
sV\u5199
I1765
sV\u6413
I2939
sV\u6392
I749
sV\u8715
I1504
sV\u7a17
I2552
sV\u9996
I1236
sV\u7c98
I2232
sV\u8e7f
I2923
sV\u7f9a
I407
sV\u531d
I2168
sV\u761f
I1590
sV\u8c23
I1936
sV\u8ba2
I3062
sV\u4ea4
I3737
sV\u8170
I1929
sV\u4f9d
I1963
sV\u67aa
I925
sV\u9e2f
I1913
sV\u8349
I2738
sV\u7433
I389
sV\u73b2
I401
sV\u8d39
I3195
sV\u6cb8
I3194
sV\u603b
I2461
sV\u633d
I1539
sV\u62bc
I1864
sV\u7941
I884
sV\u5bc2
I3653
sV\u7ec4
I2474
sV\u7247
I818
sV\u51c6
I2429
sV\u54c8
I3428
sV\u50a3
I2951
sV\u4e4f
I3152
sV\u6151
I1156
sV\u63d2
I2746
sV\u86d4
I3577
sV\u7a57
I1350
sV\u75de
I812
sV\u68e0
I1405
sV\u8be2
I1853
sV\u4ee4
I414
sV\u6267
I2327
sV\u61e6
I731
sV\u786b
I418
sV\u5dee
I2755
sV\u5171
I3352
sV\u5473
I1579
sV\u53f2
I1204
sV\u56f4
I1564
sV\u8155
I1546
sV\u4ffa
I2509
sV\u62fc
I826
sV\u9881
I2558
sV\u5f04
I722
sV\u7387
I472
sV\u9006
I688
sV\u9489
I3057
sV\u9508
I1810
sV\u8c0e
I3571
sV\u8110
I880
sV\u6212
I29
sV\u8695
I2724
sV\u6714
I1298
sV\u7b97
I1342
sV\u7816
I2410
sV\u519b
I147
sV\u5e1a
I2374
sV\u529d
I1010
sV\u731c
I2711
sV\u5f84
I77
sV\u8da3
I998
sV\u4ea5
I3433
sV\u4f24
I1131
sV\u63a7
I205
sV\u8c30
I273
sV\u64a9
I371
sV\u5320
I3729
sV\u7b2c
I3017
sV\u74dc
I3381
sV\u90b1
I981
sV\u7130
I1907
sV\u55b3
I2210
sV\u6bb7
I2014
sV\u6cb9
I2070
sV\u8d38
I543
sV\u6e3a
I600
sV\u82bd
I1869
sV\u58c1
I2642
sV\u7ec5
I1167
sV\u54c9
I2172
sV\u5272
I3318
sV\u6b4c
I3312
sV\u4fcf
I946
sV\u60d1
I3605
sV\u8150
I3255
sV\u6252
I2529
sV\u4f0f
I3238
sV\u5cd9
I2344
sV\u5965
I2524
sV\u51db
I397
sV\u535c
I2700
sV\u57df
I2107
sV\u745e
I1074
sV\u6ee5
I279
sV\u5fbd
I3575
sV\u7aed
I24
sV\u5170
I271
sV\u7272
I1179
sV\u9774
I1843
sV\u8bf7
I975
sV\u6876
I1479
sV\u82cd
I2729
sV\u6d78
I55
sV\u81fb
I2286
sV\u62fd
I2408
sV\u67ff
I1214
sV\u7801
I505
sV\u9a82
I508
sV\u5e05
I1282
sV\u9f84
I404
sV\u7409
I416
sV\u6f0f
I439
sV\u8513
I521
sV\u8292
I526
sV\u9896
I2042
sV\u5e9a
I3333
sV\u521d
I2856
sV\u571f
I1496
sV\u949e
I2785
sV\u6821
I1748
sV\u8d23
I2199
sV\u4e25
I1885
sV\u6ec7
I3024
sV\u8327
I3691
sV\u60a6
I2154
sV\u592b
I3228
sV\u7530
I1448
sV\u5f2f
I1531
sV\u7cae
I360
sV\u51b0
I2673
sV\u7533
I1161
sV\u52b2
I57
sV\u9635
I2296
sV\u771f
I2283
sV\u5175
I2672
sV\u4eba
I1037
sV\u79c0
I1811
sV\u5ac2
I1097
sV\u9e45
I3128
sV\u5347
I1180
sV\u75c8
I2049
sV\u56ca
I668
sV\u8bcc
I2370
sV\u4f4f
I2402
sV\u764c
I2499
sV\u62d2
I115
sV\u7686
I13
sV\u67d4
I1059
sV\u5b57
I2455
sV\u7eda
I1842
sV\u575f
I3202
sV\u8861
I3494
sV\u6dd1
I1252
sV\u8d63
I3291
sV\u7fe0
I2933
sV\u6367
I797
sV\u60e6
I3034
sV\u6469
I624
sV\u65e8
I2335
sV\u9a6d
I2125
sV\u51f0
I3565
sV\u9675
I410
sV\u707f
I2728
sV\u6c79
I1803
sV\u6bd5
I2631
sV\u817b
I687
sV\u677f
I2559
sV\u5b81
I712
sV\u7a00
I1652
sV\u641e
I3307
sV\u5c04
I1155
sV\u7f00
I2427
sV\u6c8f
I873
sV\u4f0e
I3647
sV\u6210
I2812
sV\u6414
I1094
sV\u9897
I186
sV\u9f99
I426
sV\u9885
I443
sV\u529b
I343
sV\u949f
I2358
sV\u971e
I1679
sV\u8ba1
I3654
sV\u835a
I3668
sV\u8c24
I2579
sV\u6628
I2483
sV\u7f2e
I1129
sV\u5230
I2988
sV\u75b5
I2900
sV\u7434
I957
sV\u8fb9
I2647
sV\u4e38
I1535
sV\u8d3a
I3484
sV\u9f8b
I997
sV\u7ec3
I359
sV\u9648
I2805
sV\u954a
I705
sV\u884c
I1793
sV\u4f4e
I3004
sV\u85d5
I738
sV\u6454
I1279
sV\u7b56
I2740
sV\u5fd9
I530
sV\u51dd
I711
sV\u505c
I1466
sV\u54df
I2045
sV\u575e
I1632
sV\u6be1
I2230
sV\u4ee3
I2955
sV\u6eba
I689
sV\u6c64
I1401
sV\u60e7
I124
sV\u6668
I2802
sV\u8d66
I1153
sV\u786c
I2043
sV\u7cef
I732
sV\u7f6e
I2342
sV\u6868
I3726
sV\u8ff9
I3619
sV\u607c
I671
sV\u677e
I1316
sV\u5e03
I2705
sV\u5982
I1065
sV\u5386
I333
sV\u9709
I549
sV\u77ed
I3096
sV\u558a
I3444
sV\u690d
I2325
sV\u6c0f
I1228
sV\u6f8e
I788
sV\u6311
I1453
sV\u6613
I1986
sV\u82ef
I2613
sV\u5e45
I3235
sV\u521b
I2885
sV\u716e
I2390
sV\u541f
I2018
sV\u4fc4
I3129
sV\u6b21
I2911
sV\u6e23
I2211
sV\u6d25
I43
sV\u6ca4
I741
sV\u6027
I1797
sV\u85aa
I1774
sV\u751c
I1449
sV\u9633
I1921
sV\u51b2
I2840
sV\u7535
I3030
sV\u8d22
I2715
sV\u6837
I1926
sV\u8bb6
I1878
sV\u60bc
I2990
sV\u7a74
I1846
sV\u9b41
I242
sV\u9e43
I128
sV\u76ca
I2001
sV\u9047
I2111
sV\u5f20
I2250
sV\u76c8
I2040
sV\u75ca
I1006
sV\u8fce
I2038
sV\u62d0
I3387
sV\u6653
I1745
sV\u61d2
I276
sV\u9ed8
I630
sV\u725b
I715
sV\u915d
I2164
sV\u7cfb
I1672
sV\u745f
I1098
sV\u6f84
I2817
sV\u8be1
I3412
sV\u996d
I3171
sV\u58ec
I1035
sV\u5c6f
I1508
sV\u5371
I1560
sV\u72f0
I2301
sV\u8877
I2359
sV\u8328
I2901
sV\u6655
I2165
sV\u8dfa
I3121
sV\u4e22
I3063
sV\u7a81
I1490
sV\u5501
I1905
sV\u7802
I1104
sV\u9187
I2893
sV\u7206
I2596
sV\u5708
I1000
sV\u6b8b
I2725
sV\u540a
I3044
sV\u888d
I771
sV\u4e0e
I2100
sV\u6291
I1985
sV\u6012
I725
sV\u6495
I1301
sV\u5e99
I601
sV\u7f18
I2140
sV\u739b
I504
sV\u5c1a
I1136
sV\u759f
I729
sV\u6b20
I923
sV\u4fa3
I464
sV\u8822
I2897
sV\u6ca5
I341
sV\u8d24
I1696
sV\u5730
I3015
sV\u6728
I648
sV\u5bab
I3346
sV\u642a
I1403
sV\u5e2e
I2569
sV\u52b1
I331
sV\u77b3
I1474
sV\u94b5
I2684
sV\u69b7
I1016
sV\u4f38
I1163
sV\u756a
I3158
sV\u663e
I1703
sV\u5ac1
I3678
sV\u5fc3
I1781
sV\u91c7
I2718
sV\u9075
I2482
sV\u6bcb
I1624
sV\u544a
I3310
sV\u68cd
I3421
sV\u4e4e
I3513
sV\u82d1
I2142
sV\u6350
I127
sV\u67d3
I1024
sV\u6052
I3495
sV\u7ed9
I3328
sV\u53db
I761
sV\u903e
I2091
sV\u90dd
I3462
sV\u515c
I3073
sV\u6ce5
I682
sV\u8367
I2036
sV\u6266
I904
sV\u6768
I1915
sV\u72f1
I2117
sV\u5370
I2026
sV\u77f3
I1196
sV\u7574
I2846
sV\u8c7a
I2759
sV\u80fd
I678
sV\u667e
I368
sV\u5a01
I1557
sV\u6ec1
I2863
sV\u5f03
I896
sV\u9882
I1319
sV\u9609
I1881
sV\u6ed1
I3534
sV\u5782
I2890
sV\u4e8e
I2083
sV\u6211
I1607
sV\u6390
I900
sV\u4f6f
I1917
sV\u7a96
I10
sV\u8f9c
I3362
sV\u5f98
I751
sV\u731b
I569
sV\u901d
I1218
sV\u519c
I721
sV\u751f
I1177
sV\u6a21
I621
sV\u68a2
I1138
sV\u6da4
I3010
sV\u6127
I245
sV\u82a6
I441
sV\u7d2f
I302
sV\u7231
I2504
sV\u73b0
I1705
sV\u50b2
I2523
sV\u7435
I805
sV\u4e39
I2963
sV\u803d
I2961
sV\u653f
I2307
sV\u5c45
I106
sV\u884d
I1897
sV\u8d4f
I1133
sV\u4ece
I2916
sV\u6251
I849
sV\u63d0
I1434
sV\u57a2
I3358
sV\u5957
I1424
sV\u7ad6
I1271
sV\u7fd8
I944
sV\u91dc
I3250
sV\u62a4
I3526
sV\u6a61
I1731
sV\u4f63
I2047
sV\u6de4
I2082
sV\u9cd6
I2662
sV\u62e6
I268
sV\u59ec
I3623
sV\u53f0
I1377
sV\u9773
I50
sV\u845b
I3320
sV\u75f4
I2824
sV\u6977
I161
sV\u8ff8
I2621
sV\u637b
I695
sV\u81fc
I97
sV\u66fe
I2207
sV\u5883
I74
sV\u5f02
I2007
sV\u5b85
I2225
sV\u5a04
I436
sV\u7687
I3564
sV\u5506
I1359
sV\u5189
I1023
sV\u6e56
I3522
sV\u4f8d
I1225
sV\u8e0c
I2847
sV\u690e
I2422
sV\u6591
I2553
sV\u6410
I2869
sV\u8712
I1887
sV\u8214
I1451
sV\u5e97
I3033
sV\u5d16
I1872
sV\u5999
I602
sV\u8d85
I2783
sV\u961c
I3263
sV\u529f
I3340
sV\u6da1
I1605
sV\u8d31
I3706
sV\u8ba5
I3621
sV\u6028
I2144
sV\u632a
I730
sV\u755c
I1827
sV\u70b3
I2677
sV\u9732
I452
sV\u6838
I3471
sV\u6b3a
I865
sV\u663c
I2378
sV\u62bf
I606
sV\u813e
I808
sV\u5c40
I109
sV\u5bc5
I2021
sV\u96c7
I3379
sV\u5546
I1132
sV\u51c9
I361
sV\u534a
I2565
sV\u4e4c
I1615
sV\u975b
I3028
sV\u503c
I2328
sV\u6254
I1045
sV\u5858
I1402
sV\u7f0e
I3100
sV\u9986
I3395
sV\u7f20
I2765
sV\u52df
I646
sV\u715e
I1111
sV\u6de1
I2972
sV\u6c60
I2827
sV\u8be5
I3275
sV\u6566
I3108
sV\u6068
I3490
sV\u9ad8
I3303
sV\u6df3
I2895
sV\u7aef
I3095
sV\u996e
I2022
sV\u7470
I3403
sV\u50f3
I1334
sV\u9274
I3704
sV\u4ef7
I3675
sV\u8d76
I3287
sV\u79be
I3472
sV\u62ff
I653
sV\u817e
I1427
sV\u7897
I1538
sV\u54c0
I2497
sV\u7109
I1879
sV\u5088
I335
sV\u8c0b
I635
sV\u4f0d
I1630
sV\u4e8c
I3146
sV\u8511
I603
sV\u80de
I2581
sV\u5e18
I3752
sV\u9898
I1435
sV\u541b
I148
sV\u5b9a
I3061
sV\u969c
I2260
sV\u75ea
I3552
sV\u8d21
I3351
sV\u6627
I557
sV\u60a8
I708
sV\u63aa
I2940
sV\u7eac
I1576
sV\u59ae
I679
sV\u7531
I2066
sV\u8bba
I489
sV\u673d
I1808
sV\u623f
I3177
sV\u61be
I3450
sV\u7ba1
I3394
sV\u8bca
I2292
sV\u9647
I434
sV\u7a20
I2848
sV\u9149
I2072
sV\u70c8
I386
sV\u73ca
I1114
sV\u6f4d
I1568
sV\u96cc
I2903
sV\u6551
I95
sV\u67d2
I872
sV\u6355
I2699
sV\u82d4
I1375
sV\u98d8
I820
sV\u545b
I926
sV\u91ce
I1947
sV\u575d
I2541
sV\u725f
I636
sV\u8d61
I1124
sV\u8863
I1965
sV\u8fe2
I1455
sV\u6b65
I2706
sV\u65e6
I2968
sV\u60e8
I2727
sV\u63ea
I85
sV\u5f6d
I789
sV\u9a6f
I1855
sV\u94f0
I3744
sV\u5375
I479
sV\u88f8
I497
sV\u8bfa
I733
sV\u66fc
I522
sV\u627f
I2819
sV\u5c81
I1349
sV\u5e02
I1229
sV\u7406
I320
sV\u7089
I445
sV\u8d8b
I987
sV\u520a
I164
sV\u6491
I2808
sV\u6295
I1485
sV\u5f97
I2994
sV\u5c16
I3682
sV\u5899
I929
sV\u7a1a
I2348
sV\u971c
I1285
sV\u539f
I2132
sV\u5984
I1556
sV\u6ca1
I551
sV\u8e22
I1432
sV\u80a9
I3687
sV\u622a
I17
sV\u5ead
I1468
sV\u94b1
I914
sV\u9530
I568
sV\u51b3
I141
sV\u5632
I2787
sV\u7334
I3507
sV\u5434
I1623
sV\u79c3
I1489
sV\u5e42
I585
sV\u9b44
I845
sV\u5446
I2949
sV\u5148
I1691
sV\u6dcb
I396
sV\u524a
I1738
sV\u4ecd
I1046
sV\u6bcf
I555
sV\u84d1
I1357
sV\u6652
I1113
sV\u8354
I326
sV\u5fd7
I2337
sV\u6e38
I2071
sV\u75db
I1483
sV\u5a5a
I3595
sV\u9499
I3278
sV\u6ce1
I773
sV\u8d60
I2208
sV\u89e3
I27
sV\u6b64
I2908
sV\u6389
I3043
sV\u60e9
I2816
sV\u6168
I163
sV\u5deb
I1612
sV\u7eed
I1832
sV\u5f6c
I2666
sV\u786e
I1017
sV\u94f1
I1962
sV\u9570
I350
sV\u51f3
I3001
sV\u9492
I3162
sV\u5374
I1014
sV\u8ff7
I576
sV\u88f9
I3426
sV\u8015
I3331
sV\u85fb
I2188
sV\u5c01
I3212
sV\u6bc1
I3579
sV\u7e82
I2476
sV\u9707
I2293
sV\u5486
I768
sV\u9009
I1839
sV\u5188
I3292
sV\u6d0b
I1920
sV\u728a
I3083
sV\u6e0d
I2454
sV\u8113
I719
sV\u626f
I2793
sV\u5f17
I3245
sV\u5b98
I3391
sV\u9a9a
I1095
sV\u4ea2
I175
sV\u8ba4
I1041
sV\u5cf0
I3215
sV\u81a8
I794
sV\u7d2b
I2448
sV\u6346
I249
sV\u5e2d
I1666
sV\u5431
I2315
sV\u7235
I139
sV\u6839
I3329
sV\u653b
I3339
sV\u80be
I1173
sV\u5c41
I814
sV\u554a
I2491
sV\u5bc4
I3652
sV\u5747
I144
sV\u94c6
I537
sV\u6d4b
I2743
sV\u6e4d
I1499
sV\u684c
I2433
sV\u85d0
I598
sV\u7f57
I492
sV\u7cd6
I1408
sV\u79d8
I580
sV\u4f20
I2876
sV\u6c61
I1616
sV\u517d
I1243
sV\u64e6
I2710
sV\u6069
I3139
sV\u58ee
I2420
sV\u95f0
I1076
sV\u5173
I3390
sV\u76f2
I528
sV\u7275
I903
sV\u7a7f
I2874
sV\u867d
I1343
sV\u5f81
I2300
sV\u7a83
I952
sV\u9985
I1709
sV\u5706
I2137
sV\u5389
I330
sV\u4e8b
I1215
sV\u710a
I3452
sV\u6293
I2406
sV\u6512
I2179
sV\u6014
I2303
sV\u7c97
I2919
sV\u7f16
I2648
sV\u5b99
I2377
sV\u5a18
I697
sV\u591a
I3116
sV\u559d
I3468
sV\u62db
I2261
sV\u6fa1
I2191
sV\u6e20
I994
sV\u798f
I3243
sV\u8d5a
I2413
sV\u63a9
I1895
sV\u7eab
I1044
sV\u52b3
I288
sV\u7532
I3671
sV\u51b5
I235
sV\u4f36
I406
sV\u8bb9
I3131
sV\u975e
I3185
sV\u65bd
I1190
sV\u80bf
I2362
sV\u7fc1
I1601
sV\u5be1
I3383
sV\u54c7
I1522
sV\u53c9
I2747
sV\u7248
I2560
sV\u4ecb
I34
sV\u7eb6
I488
sV\u8c4c
I1530
sV\u67d1
I3284
sV\u8650
I728
sV\u62d3
I1519
sV\u8054
I347
sV\u7bd9
I3301
sV\u76db
I1183
sV\u545c
I1613
sV\u70df
I1882
sV\u535e
I2653
sV\u4fe1
I1782
sV\u4e60
I1667
sV\u8d62
I2039
sV\u50e7
I1102
sV\u63e9
I160
sV\u643d
I2752
sV\u97e9
I3439
sV\u9668
I2160
sV\u60f0
I3124
sV\u7b14
I2626
sV\u9a84
I3740
sV\u5a03
I1525
sV\u556a
I742
sV\u9884
I2123
sV\u5288
I804
sV\u4e0b
I1685
sV\u718a
I1805
sV\u8c8c
I542
sV\u680f
I267
sV\u6094
I3580
sV\u7a98
I84
sV\u561b
I509
sV\u6f6e
I2788
sV\u901f
I1332
sV\u8925
I1070
sV\u8427
I1735
sV\u8270
I3688
sV\u62a8
I786
sV\u96c6
I3631
sV\u5d2d
I2237
sV\u75b2
I809
sV\u8c37
I3374
sV\u853d
I2630
sV\u64bc
I3447
sV\u803f
I3336
sV\u5349
I3582
sV\u72c8
I2607
sV\u8e4b
I1372
sV\u91ca
I1226
sV\u6ccc
I582
sV\u8dcc
I3047
sV\u6751
I2934
sV\u6253
I2947
sV\u6155
I647
sV\u9965
I3618
sV\u5b59
I1354
sV\u62a5
I2592
sV\u965b
I2645
sV\u59da
I1937
sV\u94dc
I1476
sV\u88e4
I216
sV\u6467
I2926
sV\u62e8
I2683
sV\u81ea
I2453
sV\u7bee
I269
sV\u56f0
I250
sV\u95f2
I1699
sV\u9175
I6
sV\u90f4
I2798
sV\u6b79
I2950
sV\u607f
I2058
sV\u5f00
I159
sV\u5b83
I1367
sV\u5885
I1272
sV\u5904
I2871
sV\u5587
I257
sV\u5308
I1802
sV\u4f8b
I336
sV\u900a
I1861
sV\u6691
I1259
sV\u5e16
I1460
sV\u579b
I3118
sV\u781a
I1903
sV\u949d
I3111
sV\u575b
I1388
sV\u719f
I1257
sV\u4ea1
I1549
sV\u6f20
I632
sV\u8ba3
I3268
sV\u6c22
I966
sV\u65a7
I3251
sV\u6328
I2494
sV\u802a
I765
sV\u5cad
I411
sV\u76b1
I2376
sV\u7709
I552
sV\u90b5
I1147
sV\u853c
I2500
sV\u6c26
I3432
sV\u5c42
I2744
sV\u78c5
I2575
sV\u5944
I1894
sV\u75c7
I2309
sV\u9646
I459
sV\u52c9
I591
sV\u5348
I1628
sV\u8d4c
I3088
sV\u6750
I2713
sV\u9a76
I1208
sV\u60d5
I1441
sV\u8154
I927
sV\u7ad9
I2243
sV\u8865
I2702
sV\u77db
I536
sV\u94dd
I463
sV\u955c
I76
sV\u6ee1
I520
sV\u4f60
I685
sV\u8be3
I2003
sV\u8c62
I3553
sV\u65e7
I96
sV\u6666
I3584
sV\u62e9
I2200
sV\u5feb
I225
sV\u806a
I2912
sV\u5ced
I945
sV\u79ef
I3615
sV\u9a6e
I1515
sV\u56f1
I2914
sV\u7269
I1636
sV\u53f3
I2075
sV\u9192
I1794
sV\u50f5
I3719
sV\u5174
I1788
sV\u6df7
I3598
sV\u627e
I2263
sV\u5e01
I2634
sV\u94c1
I1459
sV\u9b03
I2456
sV\u5c82
I887
sV\u7984
I457
sV\u5507
I2894
sV\u9686
I431
sV\u708a
I2887
sV\u8c0d
I3052
sV\u6d8c
I2056
sV\u54b1
I2178
sV\u8611
I620
sV\u6790
I1643
sV\u6492
I1080
sV\u6015
I746
sV\u62c5
I2962
sV\u541d
I399
sV\u559c
I1669
sV\u529e
I2566
sV\u6e21
I3093
sV\u4fa0
I1683
sV\u6b23
I1777
sV\u63a8
I1501
sV\u80aa
I3176
sV\u592f
I3455
sV\u5631
I2393
sV\u94f2
I2766
sV\u8d37
I2956
sV\u5948
I664
sV\u8364
I3593
sV\u8bb8
I1821
sV\u843d
I498
sV\u613f
I2143
sV\u7e41
I3163
sV\u7845
I3406
sV\u6d77
I3431
sV\u9547
I2295
sV\u76c6
I784
sV\u53c8
I2079
sV\u90ca
I3738
sV\u6dcc
I1411
sV\u8651
I469
sV\u67d0
I637
sV\u64d2
I960
sV\u6055
I1276
sV\u83cf
I3470
sV\u5ed6
I382
sV\u8d25
I2550
sV\u775b
I61
sV\u55dc
I1221
sV\u79c6
I3289
sV\u72de
I710
sV\u4e61
I1722
sV\u6b63
I2306
sV\u6ce2
I2685
sV\u6865
I937
sV\u6269
I252
sV\u996f
I3714
sV\u5373
I3636
sV\u54f2
I2273
sV\u7075
I409
sV\u602a
I3388
sV\u8d77
I886
sV\u4ef6
I3710
sV\u8a79
I2231
sV\u8bf8
I2385
sV\u62fe
I1197
sV\u817f
I1503
sV\u9b54
I625
s.